 game_shader_dx9

 Timestamp is 4c75e446 (Thu Aug 26 11:49:26 2010)

 Preferred load address is 10000000

 Start         Length     Name                   Class
 0001:00000000 00030662H .text                   CODE
 0001:00030670 00006f23H .text$yc                CODE
 0001:000375a0 0000045fH .text$yd                CODE
 0002:00000000 0000013cH .idata$5                DATA
 0002:0000013c 00000004H .CRT$XCA                DATA
 0002:00000140 00000a10H .CRT$XCU                DATA
 0002:00000b50 00000004H .CRT$XCZ                DATA
 0002:00000b54 00000004H .CRT$XIA                DATA
 0002:00000b58 00000014H .CRT$XIC                DATA
 0002:00000b6c 00000004H .CRT$XIZ                DATA
 0002:00000b70 00000004H .CRT$XPA                DATA
 0002:00000b74 00000004H .CRT$XPX                DATA
 0002:00000b78 00000004H .CRT$XPXA               DATA
 0002:00000b7c 00000004H .CRT$XPZ                DATA
 0002:00000b80 00000004H .CRT$XTA                DATA
 0002:00000b84 00000004H .CRT$XTZ                DATA
 0002:00000b90 0000ee78H .rdata                  DATA
 0002:0000fa08 00000061H .rdata$debug            DATA
 0002:0000fa6c 00001694H .rdata$r                DATA
 0002:00011100 0000000cH .rdata$sxdata           DATA
 0002:0001110c 00000004H .rtc$IAA                DATA
 0002:00011110 00000004H .rtc$IZZ                DATA
 0002:00011114 00000004H .rtc$TAA                DATA
 0002:00011118 00000004H .rtc$TZZ                DATA
 0002:00011120 00000424H .xdata$x                DATA
 0002:00011544 00000028H .idata$2                DATA
 0002:0001156c 00000014H .idata$3                DATA
 0002:00011580 0000013cH .idata$4                DATA
 0002:000116bc 0000059aH .idata$6                DATA
 0002:00011c60 00000088H .edata                  DATA
 0003:00000000 00005fb8H .data                   DATA
 0003:00005fc0 0000cb40H .bss                    DATA

  Address         Publics by Value              Rva+Base       Lib:Object

 0000:00000000       __except_list              00000000     <absolute>
 0000:00000003       ___safe_se_handler_count   00000003     <absolute>
 0000:00000000       ___ImageBase               10000000     <linker-defined>
 0001:00000000       ?GetSoftwareVertexShader@CBaseShader@@UBEQ6AXAAVCMeshBuilder@@PAPAVIMaterialVar@@PAVIShaderDynamicAPI@@@ZXZ 10001000 f i aftershock.obj
 0001:00000010       ?OnInitShaderParams@CBaseShader@@UAEXPAPAVIMaterialVar@@PBD@Z 10001010 f i aftershock.obj
 0001:00000010       ?OnInitShaderParams@CShader@SDK_Eyeball@@UAEXPAPAVIMaterialVar@@PBD@Z 10001010 f i eyeball.obj
 0001:00000020       ?GetFallbackShader@CShader@SDK_Aftershock@@UBEPBDPAPAVIMaterialVar@@@Z 10001020 f i aftershock.obj
 0001:00000030       ?GetName@CShader@SDK_Aftershock@@UBEPBDXZ 10001030 f i aftershock.obj
 0001:00000040       ?GetFlags@CShader@SDK_Aftershock@@UBEHXZ 10001040 f i aftershock.obj
 0001:00000050       ?OnDrawElements@CShader@SDK_Core@@UAEXPAPAVIMaterialVar@@PAVIShaderShadow@@PAVIShaderDynamicAPI@@W4VertexCompressionType_t@@PAPAVCBasePerMaterialContextData@@@Z 10001050 f i core_dx9.obj
 0001:00000050       ?OnDrawElements@CShader@SDK_eyes@@UAEXPAPAVIMaterialVar@@PAVIShaderShadow@@PAVIShaderDynamicAPI@@W4VertexCompressionType_t@@PAPAVCBasePerMaterialContextData@@@Z 10001050 f i eyes.obj
 0001:00000050       ?OnDrawElements@CShader@SDK_Aftershock@@UAEXPAPAVIMaterialVar@@PAVIShaderShadow@@PAVIShaderDynamicAPI@@W4VertexCompressionType_t@@PAPAVCBasePerMaterialContextData@@@Z 10001050 f i aftershock.obj
 0001:00000050       ?OnDrawElements@CShader@SDK_LightmappedReflective@@UAEXPAPAVIMaterialVar@@PAVIShaderShadow@@PAVIShaderDynamicAPI@@W4VertexCompressionType_t@@PAPAVCBasePerMaterialContextData@@@Z 10001050 f i lightmappedreflective.obj
 0001:00000050       ?OnDrawElements@CShader@SDK_EyeGlint@@UAEXPAPAVIMaterialVar@@PAVIShaderShadow@@PAVIShaderDynamicAPI@@W4VertexCompressionType_t@@PAPAVCBasePerMaterialContextData@@@Z 10001050 f i dx8fallbacks.obj
 0001:00000050       ?OnDrawElements@CShader@SDK_VortWarp@@UAEXPAPAVIMaterialVar@@PAVIShaderShadow@@PAVIShaderDynamicAPI@@W4VertexCompressionType_t@@PAPAVCBasePerMaterialContextData@@@Z 10001050 f i vortwarp_dx9.obj
 0001:00000050       ?OnDrawElements@CShader@SDK_Refract@@UAEXPAPAVIMaterialVar@@PAVIShaderShadow@@PAVIShaderDynamicAPI@@W4VertexCompressionType_t@@PAPAVCBasePerMaterialContextData@@@Z 10001050 f i refract.obj
 0001:00000050       ?OnDrawElements@CShader@SDK_Teeth@@UAEXPAPAVIMaterialVar@@PAVIShaderShadow@@PAVIShaderDynamicAPI@@W4VertexCompressionType_t@@PAPAVCBasePerMaterialContextData@@@Z 10001050 f i teeth.obj
 0001:00000050       ?OnDrawElements@CShader@SDK_UnlitTwoTexture@@UAEXPAPAVIMaterialVar@@PAVIShaderShadow@@PAVIShaderDynamicAPI@@W4VertexCompressionType_t@@PAPAVCBasePerMaterialContextData@@@Z 10001050 f i unlittwotexture_dx9.obj
 0001:00000050       ?OnDrawElements@CShader@SDK_VolumeClouds@@UAEXPAPAVIMaterialVar@@PAVIShaderShadow@@PAVIShaderDynamicAPI@@W4VertexCompressionType_t@@PAPAVCBasePerMaterialContextData@@@Z 10001050 f i dx8fallbacks.obj
 0001:00000050       ?OnDrawElements@CShader@SDK_Eyeball@@UAEXPAPAVIMaterialVar@@PAVIShaderShadow@@PAVIShaderDynamicAPI@@W4VertexCompressionType_t@@PAPAVCBasePerMaterialContextData@@@Z 10001050 f i eyeball.obj
 0001:00000050       ?OnDrawElements@CShader@SDK_screenspace_general@@UAEXPAPAVIMaterialVar@@PAVIShaderShadow@@PAVIShaderDynamicAPI@@W4VertexCompressionType_t@@PAPAVCBasePerMaterialContextData@@@Z 10001050 f i screenspace_general.obj
 0001:00000050       ?OnDrawElements@CShader@SDK_Cable@@UAEXPAPAVIMaterialVar@@PAVIShaderShadow@@PAVIShaderDynamicAPI@@W4VertexCompressionType_t@@PAPAVCBasePerMaterialContextData@@@Z 10001050 f i cable_dx9.obj
 0001:00000050       ?OnDrawElements@CShader@SDK_Water@@UAEXPAPAVIMaterialVar@@PAVIShaderShadow@@PAVIShaderDynamicAPI@@W4VertexCompressionType_t@@PAPAVCBasePerMaterialContextData@@@Z 10001050 f i water.obj
 0001:00000050       ?OnDrawElements@CShader@SDK_AfterShock@@UAEXPAPAVIMaterialVar@@PAVIShaderShadow@@PAVIShaderDynamicAPI@@W4VertexCompressionType_t@@PAPAVCBasePerMaterialContextData@@@Z 10001050 f i dx8fallbacks.obj
 0001:00000050       ?OnDrawElements@CShader@SDK_WorldVertexTransition@@UAEXPAPAVIMaterialVar@@PAVIShaderShadow@@PAVIShaderDynamicAPI@@W4VertexCompressionType_t@@PAPAVCBasePerMaterialContextData@@@Z 10001050 f i worldvertextransition.obj
 0001:00000050       ?OnDrawElements@CShader@SDK_EyeRefract@@UAEXPAPAVIMaterialVar@@PAVIShaderShadow@@PAVIShaderDynamicAPI@@W4VertexCompressionType_t@@PAPAVCBasePerMaterialContextData@@@Z 10001050 f i dx8fallbacks.obj
 0001:00000050       ?OnDrawElements@CShader@SDK_DepthWrite@@UAEXPAPAVIMaterialVar@@PAVIShaderShadow@@PAVIShaderDynamicAPI@@W4VertexCompressionType_t@@PAPAVCBasePerMaterialContextData@@@Z 10001050 f i dx8fallbacks.obj
 0001:00000060       ?GetFallbackShader@CShader@SDK_LightmappedReflective_DX90@@UBEPBDPAPAVIMaterialVar@@@Z 10001060 f i lightmappedreflective.obj
 0001:00000060       ?GetFallbackShader@CBaseShader@@UBEPBDPAPAVIMaterialVar@@@Z 10001060 f i aftershock.obj
 0001:00000060       ?GetFallbackShader@CShader@SDK_LightmappedGeneric_Decal@@UBEPBDPAPAVIMaterialVar@@@Z 10001060 f i lightmappedgeneric_decal.obj
 0001:00000070       ?GetNumParams@CShader@SDK_Aftershock@@UBEHXZ 10001070 f i aftershock.obj
 0001:00000080       ?SetupVarsAftershock@CShader@SDK_Aftershock_dx9@@QAEXAAUAftershockVars_t@@@Z 10001080 f i aftershock.obj
 0001:000000f0       ?OnInitShaderParams@CShader@SDK_Aftershock_dx9@@UAEXPAPAVIMaterialVar@@PBD@Z 100010f0 f i aftershock.obj
 0001:00000140       ?GetFallbackShader@CShader@SDK_Aftershock_dx9@@UBEPBDPAPAVIMaterialVar@@@Z 10001140 f i aftershock.obj
 0001:00000170       ?GetName@CShader@SDK_Aftershock_dx9@@UBEPBDXZ 10001170 f i aftershock.obj
 0001:00000180       ?GetFlags@CShader@SDK_Aftershock_dx9@@UBEHXZ 10001180 f i aftershock.obj
 0001:00000190       ?OnInitShaderInstance@CShader@SDK_Aftershock_dx9@@UAEXPAPAVIMaterialVar@@PAVIShaderInit@@PBD@Z 10001190 f i aftershock.obj
 0001:000001d0       ?OnDrawElements@CShader@SDK_Aftershock_dx9@@UAEXPAPAVIMaterialVar@@PAVIShaderShadow@@PAVIShaderDynamicAPI@@W4VertexCompressionType_t@@PAPAVCBasePerMaterialContextData@@@Z 100011d0 f i aftershock.obj
 0001:00000220       ?GetNumParams@CShader@SDK_Aftershock_dx9@@UBEHXZ 10001220 f i aftershock.obj
 0001:00000230       ?GetParamName@CShader@SDK_Aftershock@@UBEPBDH@Z 10001230 f i aftershock.obj
 0001:00000260       ?GetParamHelp@CShader@SDK_Aftershock@@UBEPBDH@Z 10001260 f i aftershock.obj
 0001:000002a0       ?GetParamType@CShader@SDK_Aftershock@@UBE?AW4ShaderParamType_t@@H@Z 100012a0 f i aftershock.obj
 0001:000002d0       ?GetParamDefault@CShader@SDK_Aftershock@@UBEPBDH@Z 100012d0 f i aftershock.obj
 0001:00000310       ?GetParamFlags@CShader@SDK_Aftershock@@UBEHH@Z 10001310 f i aftershock.obj
 0001:00000350       ?GetParamName@CShader@SDK_Aftershock_dx9@@UBEPBDH@Z 10001350 f i aftershock.obj
 0001:00000380       ?GetParamHelp@CShader@SDK_Aftershock_dx9@@UBEPBDH@Z 10001380 f i aftershock.obj
 0001:000003c0       ?GetParamType@CShader@SDK_Aftershock_dx9@@UBE?AW4ShaderParamType_t@@H@Z 100013c0 f i aftershock.obj
 0001:000003f0       ?GetParamDefault@CShader@SDK_Aftershock_dx9@@UBEPBDH@Z 100013f0 f i aftershock.obj
 0001:00000430       ?GetParamFlags@CShader@SDK_Aftershock_dx9@@UBEHH@Z 10001430 f i aftershock.obj
 0001:00000470       ?InitParamsAftershock@@YAXPAVCBaseVSShader@@PAPAVIMaterialVar@@PBDAAUAftershockVars_t@@@Z 10001470 f   aftershock_helper.obj
 0001:00000680       ?InitAftershock@@YAXPAVCBaseVSShader@@PAPAVIMaterialVar@@AAUAftershockVars_t@@@Z 10001680 f   aftershock_helper.obj
 0001:000006e0       ?DrawAftershock@@YAXPAVCBaseVSShader@@PAPAVIMaterialVar@@PAVIShaderDynamicAPI@@PAVIShaderShadow@@AAUAftershockVars_t@@W4VertexCompressionType_t@@@Z 100016e0 f   aftershock_helper.obj
 0001:00000c00       ?SetPixelShaderConstant@CBaseVSShader@@QAEXHHH@Z 10001c00 f   BaseVSShader.obj
 0001:00000c80       ?SetPixelShaderConstant@CBaseVSShader@@QAEXHH@Z 10001c80 f   BaseVSShader.obj
 0001:00000cf0       ?SetPixelShaderConstantGammaToLinear@CBaseVSShader@@QAEXHH@Z 10001cf0 f   BaseVSShader.obj
 0001:00000de0       ?SetVertexShaderConstant@CBaseVSShader@@QAEXHH@Z 10001de0 f   BaseVSShader.obj
 0001:00000e50       ?SetVertexShaderTextureTransform@CBaseVSShader@@QAEXHH@Z 10001e50 f   BaseVSShader.obj
 0001:00000f00       ?SetVertexShaderTextureScaledTransform@CBaseVSShader@@QAEXHHH@Z 10001f00 f   BaseVSShader.obj
 0001:00001040       ?LoadProjectionMatrixIntoVertexShaderConstant@CBaseVSShader@@QAEXH@Z 10002040 f   BaseVSShader.obj
 0001:000010a0       ?LoadModelViewMatrixIntoVertexShaderConstant@CBaseVSShader@@QAEXH@Z 100020a0 f   BaseVSShader.obj
 0001:00001130       ?EnablePixelShaderOverbright@CBaseVSShader@@QAEXH_N0@Z 10002130 f   BaseVSShader.obj
 0001:00001190       ?SetModulationPixelShaderDynamicState@CBaseVSShader@@QAEXH@Z 10002190 f   BaseVSShader.obj
 0001:000011d0       ?SetModulationPixelShaderDynamicState_LinearColorSpace@CBaseVSShader@@QAEXH@Z 100021d0 f   BaseVSShader.obj
 0001:00001280       ?SetModulationPixelShaderDynamicState_LinearColorSpace_LinearScale@CBaseVSShader@@QAEXHM@Z 10002280 f   BaseVSShader.obj
 0001:00001330       ?SetEnvMapTintPixelShaderDynamicState@CBaseVSShader@@QAEXHHH_N@Z 10002330 f   BaseVSShader.obj
 0001:000013e0       ?SetAmbientCubeDynamicStateVertexShader@CBaseVSShader@@QAEXXZ 100023e0 f   BaseVSShader.obj
 0001:000013f0       ?SetHWMorphVertexShaderState@CBaseVSShader@@QAEXHHW4VertexTextureSampler_t@@@Z 100023f0 f   BaseVSShader.obj
 0001:00001530       ?EvaluateBlendRequirements@CBaseVSShader@@QAE?AW4BlendType_t@@H_NH@Z 10002530 f   BaseVSShader.obj
 0001:000015c0       ?SetFlashlightVertexShaderConstants@CBaseVSShader@@QAEX_NH0H0@Z 100025c0 f   BaseVSShader.obj
 0001:000016c0       ?DrawFlashlight_dx80@CBaseVSShader@@QAEXPAPAVIMaterialVar@@PAVIShaderDynamicAPI@@PAVIShaderShadow@@_NHHHHH33HHH3HH@Z 100026c0 f   BaseVSShader.obj
 0001:00001a10       ?HashShadow2DJitter@CBaseVSShader@@QAEXMPAM0@Z 10002a10 f   BaseVSShader.obj
 0001:00001a70       ?DrawEqualDepthToDestAlpha@CBaseVSShader@@QAEXXZ 10002a70 f   BaseVSShader.obj
 0001:00001b70       ?DrawFlashlight_dx90@CBaseVSShader@@QAEXPAPAVIMaterialVar@@PAVIShaderDynamicAPI@@PAVIShaderShadow@@AAUDrawFlashlight_dx90_Vars_t@1@@Z 10002b70 f   BaseVSShader.obj
 0001:00002440       ?GetName@CShader@SDK_Bloom@@UBEPBDXZ 10003440 f i Bloom.obj
 0001:00002450       ?GetFlags@CShader@SDK_Bloom@@UBEHXZ 10003450 f i Bloom.obj
 0001:00002460       ?OnInitShaderInstance@CShader@SDK_Bloom@@UAEXPAPAVIMaterialVar@@PAVIShaderInit@@PBD@Z 10003460 f i Bloom.obj
 0001:000024b0       ?OnDrawElements@CShader@SDK_Bloom@@UAEXPAPAVIMaterialVar@@PAVIShaderShadow@@PAVIShaderDynamicAPI@@W4VertexCompressionType_t@@PAPAVCBasePerMaterialContextData@@@Z 100034b0 f i Bloom.obj
 0001:000025b0       ?GetNumParams@CShader@SDK_Bloom@@UBEHXZ 100035b0 f i Bloom.obj
 0001:000025c0       ?GetParamName@CShader@SDK_Bloom@@UBEPBDH@Z 100035c0 f i Bloom.obj
 0001:000025f0       ?GetParamHelp@CShader@SDK_Bloom@@UBEPBDH@Z 100035f0 f i Bloom.obj
 0001:00002630       ?GetParamType@CShader@SDK_Bloom@@UBE?AW4ShaderParamType_t@@H@Z 10003630 f i Bloom.obj
 0001:00002660       ?GetParamDefault@CShader@SDK_Bloom@@UBEPBDH@Z 10003660 f i Bloom.obj
 0001:000026a0       ?GetParamFlags@CShader@SDK_Bloom@@UBEHH@Z 100036a0 f i Bloom.obj
 0001:000026e0       ?GetFallbackShader@CShader@SDK_Cable@@UBEPBDPAPAVIMaterialVar@@@Z 100036e0 f i cable_dx9.obj
 0001:000026f0       ?GetName@CShader@SDK_Cable@@UBEPBDXZ 100036f0 f i cable_dx9.obj
 0001:00002700       ?GetFlags@CShader@SDK_Cable@@UBEHXZ 10003700 f i cable_dx9.obj
 0001:00002710       ?GetNumParams@CShader@SDK_Cable@@UBEHXZ 10003710 f i cable_dx9.obj
 0001:00002720       ?GetFallbackShader@CShader@SDK_Cable_DX9@@UBEPBDPAPAVIMaterialVar@@@Z 10003720 f i cable_dx9.obj
 0001:00002770       ?GetName@CShader@SDK_Cable_DX9@@UBEPBDXZ 10003770 f i cable_dx9.obj
 0001:00002780       ?GetFlags@CShader@SDK_Cable_DX9@@UBEHXZ 10003780 f i cable_dx9.obj
 0001:00002790       ?OnInitShaderInstance@CShader@SDK_Cable_DX9@@UAEXPAPAVIMaterialVar@@PAVIShaderInit@@PBD@Z 10003790 f i cable_dx9.obj
 0001:000027b0       ?OnDrawElements@CShader@SDK_Cable_DX9@@UAEXPAPAVIMaterialVar@@PAVIShaderShadow@@PAVIShaderDynamicAPI@@W4VertexCompressionType_t@@PAPAVCBasePerMaterialContextData@@@Z 100037b0 f i cable_dx9.obj
 0001:00002a60       ?GetNumParams@CShader@SDK_Cable_DX9@@UBEHXZ 10003a60 f i cable_dx9.obj
 0001:00002a70       ?GetParamName@CShader@SDK_Cable@@UBEPBDH@Z 10003a70 f i cable_dx9.obj
 0001:00002aa0       ?GetParamHelp@CShader@SDK_Cable@@UBEPBDH@Z 10003aa0 f i cable_dx9.obj
 0001:00002ae0       ?GetParamType@CShader@SDK_Cable@@UBE?AW4ShaderParamType_t@@H@Z 10003ae0 f i cable_dx9.obj
 0001:00002b10       ?GetParamDefault@CShader@SDK_Cable@@UBEPBDH@Z 10003b10 f i cable_dx9.obj
 0001:00002b50       ?GetParamFlags@CShader@SDK_Cable@@UBEHH@Z 10003b50 f i cable_dx9.obj
 0001:00002b90       ?GetParamName@CShader@SDK_Cable_DX9@@UBEPBDH@Z 10003b90 f i cable_dx9.obj
 0001:00002bc0       ?GetParamHelp@CShader@SDK_Cable_DX9@@UBEPBDH@Z 10003bc0 f i cable_dx9.obj
 0001:00002c00       ?GetParamType@CShader@SDK_Cable_DX9@@UBE?AW4ShaderParamType_t@@H@Z 10003c00 f i cable_dx9.obj
 0001:00002c30       ?GetParamDefault@CShader@SDK_Cable_DX9@@UBEPBDH@Z 10003c30 f i cable_dx9.obj
 0001:00002c70       ?GetParamFlags@CShader@SDK_Cable_DX9@@UBEHH@Z 10003c70 f i cable_dx9.obj
 0001:00002cb0       ?InitParamsCloakBlendedPass@@YAXPAVCBaseVSShader@@PAPAVIMaterialVar@@PBDAAUCloakBlendedPassVars_t@@@Z 10003cb0 f   cloak_blended_pass_helper.obj
 0001:00002db0       ?InitCloakBlendedPass@@YAXPAVCBaseVSShader@@PAPAVIMaterialVar@@AAUCloakBlendedPassVars_t@@@Z 10003db0 f   cloak_blended_pass_helper.obj
 0001:00002e00       ?DrawCloakBlendedPass@@YAXPAVCBaseVSShader@@PAPAVIMaterialVar@@PAVIShaderDynamicAPI@@PAVIShaderShadow@@AAUCloakBlendedPassVars_t@@W4VertexCompressionType_t@@@Z 10003e00 f   cloak_blended_pass_helper.obj
 0001:00003240       ?CloakBlendedPassIsFullyOpaque@@YA_NPAPAVIMaterialVar@@AAUCloakBlendedPassVars_t@@@Z 10004240 f   cloak_blended_pass_helper.obj
 0001:00003350       ?GetFallbackShader@CShader@SDK_Core@@UBEPBDPAPAVIMaterialVar@@@Z 10004350 f i core_dx9.obj
 0001:00003360       ?GetName@CShader@SDK_Core@@UBEPBDXZ 10004360 f i core_dx9.obj
 0001:00003370       ?GetFlags@CShader@SDK_Core@@UBEHXZ 10004370 f i core_dx9.obj
 0001:00003380       ?GetNumParams@CShader@SDK_Core@@UBEHXZ 10004380 f i core_dx9.obj
 0001:00003390       ?OnInitShaderParams@CShader@SDK_Core_DX90@@UAEXPAPAVIMaterialVar@@PBD@Z 10004390 f i core_dx9.obj
 0001:00003490       ?GetFallbackShader@CShader@SDK_Core_DX90@@UBEPBDPAPAVIMaterialVar@@@Z 10004490 f i core_dx9.obj
 0001:000034c0       ?GetName@CShader@SDK_Core_DX90@@UBEPBDXZ 100044c0 f i core_dx9.obj
 0001:000034d0       ?GetFlags@CShader@SDK_Core_DX90@@UBEHXZ 100044d0 f i core_dx9.obj
 0001:000034e0       ?OnInitShaderInstance@CShader@SDK_Core_DX90@@UAEXPAPAVIMaterialVar@@PAVIShaderInit@@PBD@Z 100044e0 f i core_dx9.obj
 0001:00003590       ?DrawPass@CShader@SDK_Core_DX90@@QAEXPAPAVIMaterialVar@@PAVIShaderShadow@@PAVIShaderDynamicAPI@@HW4VertexCompressionType_t@@@Z 10004590 f i core_dx9.obj
 0001:00003ad0       ?OnDrawElements@CShader@SDK_Core_DX90@@UAEXPAPAVIMaterialVar@@PAVIShaderShadow@@PAVIShaderDynamicAPI@@W4VertexCompressionType_t@@PAPAVCBasePerMaterialContextData@@@Z 10004ad0 f i core_dx9.obj
 0001:00003b10       ?GetNumParams@CShader@SDK_Core_DX90@@UBEHXZ 10004b10 f i core_dx9.obj
 0001:00003b20       ?GetParamName@CShader@SDK_Core@@UBEPBDH@Z 10004b20 f i core_dx9.obj
 0001:00003b50       ?GetParamHelp@CShader@SDK_Core@@UBEPBDH@Z 10004b50 f i core_dx9.obj
 0001:00003b90       ?GetParamType@CShader@SDK_Core@@UBE?AW4ShaderParamType_t@@H@Z 10004b90 f i core_dx9.obj
 0001:00003bc0       ?GetParamDefault@CShader@SDK_Core@@UBEPBDH@Z 10004bc0 f i core_dx9.obj
 0001:00003c00       ?GetParamFlags@CShader@SDK_Core@@UBEHH@Z 10004c00 f i core_dx9.obj
 0001:00003c40       ?GetParamName@CShader@SDK_Core_DX90@@UBEPBDH@Z 10004c40 f i core_dx9.obj
 0001:00003c70       ?GetParamHelp@CShader@SDK_Core_DX90@@UBEPBDH@Z 10004c70 f i core_dx9.obj
 0001:00003cb0       ?GetParamType@CShader@SDK_Core_DX90@@UBE?AW4ShaderParamType_t@@H@Z 10004cb0 f i core_dx9.obj
 0001:00003ce0       ?GetParamDefault@CShader@SDK_Core_DX90@@UBEPBDH@Z 10004ce0 f i core_dx9.obj
 0001:00003d20       ?GetParamFlags@CShader@SDK_Core_DX90@@UBEHH@Z 10004d20 f i core_dx9.obj
 0001:00003d60       ?GetName@CShader@SDK_DepthWrite@@UBEPBDXZ 10004d60 f i dx8fallbacks.obj
 0001:00003d70       ?GetFlags@CShader@SDK_DepthWrite@@UBEHXZ 10004d70 f i dx8fallbacks.obj
 0001:00003d80       ?GetFallbackShader@CShader@SDK_EyeRefract@@UBEPBDPAPAVIMaterialVar@@@Z 10004d80 f i dx8fallbacks.obj
 0001:00003d90       ?GetName@CShader@SDK_EyeRefract@@UBEPBDXZ 10004d90 f i dx8fallbacks.obj
 0001:00003da0       ?GetFlags@CShader@SDK_EyeRefract@@UBEHXZ 10004da0 f i dx8fallbacks.obj
 0001:00003db0       ?GetFallbackShader@CShader@SDK_VolumeClouds@@UBEPBDPAPAVIMaterialVar@@@Z 10004db0 f i dx8fallbacks.obj
 0001:00003dc0       ?GetName@CShader@SDK_VolumeClouds@@UBEPBDXZ 10004dc0 f i dx8fallbacks.obj
 0001:00003dd0       ?GetFlags@CShader@SDK_VolumeClouds@@UBEHXZ 10004dd0 f i dx8fallbacks.obj
 0001:00003de0       ?GetFallbackShader@CShader@SDK_EyeGlint@@UBEPBDPAPAVIMaterialVar@@@Z 10004de0 f i dx8fallbacks.obj
 0001:00003df0       ?GetName@CShader@SDK_EyeGlint@@UBEPBDXZ 10004df0 f i dx8fallbacks.obj
 0001:00003e00       ?GetFlags@CShader@SDK_EyeGlint@@UBEHXZ 10004e00 f i dx8fallbacks.obj
 0001:00003e10       ?GetFallbackShader@CShader@SDK_AfterShock@@UBEPBDPAPAVIMaterialVar@@@Z 10004e10 f i dx8fallbacks.obj
 0001:00003e20       ?GetName@CShader@SDK_AfterShock@@UBEPBDXZ 10004e20 f i dx8fallbacks.obj
 0001:00003e30       ?GetFlags@CShader@SDK_AfterShock@@UBEHXZ 10004e30 f i dx8fallbacks.obj
 0001:00003e40       ?GetNumParams@CShader@SDK_DepthWrite@@UBEHXZ 10004e40 f i dx8fallbacks.obj
 0001:00003e50       ?GetNumParams@CShader@SDK_EyeRefract@@UBEHXZ 10004e50 f i dx8fallbacks.obj
 0001:00003e60       ?GetNumParams@CShader@SDK_VolumeClouds@@UBEHXZ 10004e60 f i dx8fallbacks.obj
 0001:00003e70       ?GetNumParams@CShader@SDK_EyeGlint@@UBEHXZ 10004e70 f i dx8fallbacks.obj
 0001:00003e80       ?GetNumParams@CShader@SDK_AfterShock@@UBEHXZ 10004e80 f i dx8fallbacks.obj
 0001:00003e90       ?GetParamName@CShader@SDK_DepthWrite@@UBEPBDH@Z 10004e90 f i dx8fallbacks.obj
 0001:00003ec0       ?GetParamHelp@CShader@SDK_DepthWrite@@UBEPBDH@Z 10004ec0 f i dx8fallbacks.obj
 0001:00003f00       ?GetParamType@CShader@SDK_DepthWrite@@UBE?AW4ShaderParamType_t@@H@Z 10004f00 f i dx8fallbacks.obj
 0001:00003f30       ?GetParamDefault@CShader@SDK_DepthWrite@@UBEPBDH@Z 10004f30 f i dx8fallbacks.obj
 0001:00003f70       ?GetParamFlags@CShader@SDK_DepthWrite@@UBEHH@Z 10004f70 f i dx8fallbacks.obj
 0001:00003fb0       ?GetParamName@CShader@SDK_EyeRefract@@UBEPBDH@Z 10004fb0 f i dx8fallbacks.obj
 0001:00003fe0       ?GetParamHelp@CShader@SDK_EyeRefract@@UBEPBDH@Z 10004fe0 f i dx8fallbacks.obj
 0001:00004020       ?GetParamType@CShader@SDK_EyeRefract@@UBE?AW4ShaderParamType_t@@H@Z 10005020 f i dx8fallbacks.obj
 0001:00004050       ?GetParamDefault@CShader@SDK_EyeRefract@@UBEPBDH@Z 10005050 f i dx8fallbacks.obj
 0001:00004090       ?GetParamFlags@CShader@SDK_EyeRefract@@UBEHH@Z 10005090 f i dx8fallbacks.obj
 0001:000040d0       ?GetParamName@CShader@SDK_VolumeClouds@@UBEPBDH@Z 100050d0 f i dx8fallbacks.obj
 0001:00004100       ?GetParamHelp@CShader@SDK_VolumeClouds@@UBEPBDH@Z 10005100 f i dx8fallbacks.obj
 0001:00004140       ?GetParamType@CShader@SDK_VolumeClouds@@UBE?AW4ShaderParamType_t@@H@Z 10005140 f i dx8fallbacks.obj
 0001:00004170       ?GetParamDefault@CShader@SDK_VolumeClouds@@UBEPBDH@Z 10005170 f i dx8fallbacks.obj
 0001:000041b0       ?GetParamFlags@CShader@SDK_VolumeClouds@@UBEHH@Z 100051b0 f i dx8fallbacks.obj
 0001:000041f0       ?GetParamName@CShader@SDK_EyeGlint@@UBEPBDH@Z 100051f0 f i dx8fallbacks.obj
 0001:00004220       ?GetParamHelp@CShader@SDK_EyeGlint@@UBEPBDH@Z 10005220 f i dx8fallbacks.obj
 0001:00004260       ?GetParamType@CShader@SDK_EyeGlint@@UBE?AW4ShaderParamType_t@@H@Z 10005260 f i dx8fallbacks.obj
 0001:00004290       ?GetParamDefault@CShader@SDK_EyeGlint@@UBEPBDH@Z 10005290 f i dx8fallbacks.obj
 0001:000042d0       ?GetParamFlags@CShader@SDK_EyeGlint@@UBEHH@Z 100052d0 f i dx8fallbacks.obj
 0001:00004310       ?GetParamName@CShader@SDK_AfterShock@@UBEPBDH@Z 10005310 f i dx8fallbacks.obj
 0001:00004340       ?GetParamHelp@CShader@SDK_AfterShock@@UBEPBDH@Z 10005340 f i dx8fallbacks.obj
 0001:00004380       ?GetParamType@CShader@SDK_AfterShock@@UBE?AW4ShaderParamType_t@@H@Z 10005380 f i dx8fallbacks.obj
 0001:000043b0       ?GetParamDefault@CShader@SDK_AfterShock@@UBEPBDH@Z 100053b0 f i dx8fallbacks.obj
 0001:000043f0       ?GetParamFlags@CShader@SDK_AfterShock@@UBEHH@Z 100053f0 f i dx8fallbacks.obj
 0001:00004430       ?InitParamsEmissiveScrollBlendedPass@@YAXPAVCBaseVSShader@@PAPAVIMaterialVar@@PBDAAUEmissiveScrollBlendedPassVars_t@@@Z 10005430 f   emissive_scroll_blended_pass_helper.obj
 0001:00004500       ?InitEmissiveScrollBlendedPass@@YAXPAVCBaseVSShader@@PAPAVIMaterialVar@@AAUEmissiveScrollBlendedPassVars_t@@@Z 10005500 f   emissive_scroll_blended_pass_helper.obj
 0001:00004530       ?DrawEmissiveScrollBlendedPass@@YAXPAVCBaseVSShader@@PAPAVIMaterialVar@@PAVIShaderDynamicAPI@@PAVIShaderShadow@@AAUEmissiveScrollBlendedPassVars_t@@W4VertexCompressionType_t@@@Z 10005530 f   emissive_scroll_blended_pass_helper.obj
 0001:000048c0       ?SetupVarsEyeRefract@CShader@SDK_EyeRefract_dx9@@QAEXAAUEye_Refract_Vars_t@@@Z 100058c0 f i eye_refract.obj
 0001:00004990       ?NeedsPowerOfTwoFrameBufferTexture@CShader@SDK_EyeRefract_dx9@@UBE_NPAPAVIMaterialVar@@_N@Z 10005990 f i eye_refract.obj
 0001:000049e0       ?IsTranslucent@CShader@SDK_EyeRefract_dx9@@UBE_NPAPAVIMaterialVar@@@Z 100059e0 f i eye_refract.obj
 0001:00004a30       ?OnInitShaderParams@CShader@SDK_EyeRefract_dx9@@UAEXPAPAVIMaterialVar@@PBD@Z 10005a30 f i eye_refract.obj
 0001:00004ba0       ?GetFallbackShader@CShader@SDK_EyeRefract_dx9@@UBEPBDPAPAVIMaterialVar@@@Z 10005ba0 f i eye_refract.obj
 0001:00004ba0       ?GetFallbackShader@CShader@SDK_Eyes_dx9@@UBEPBDPAPAVIMaterialVar@@@Z 10005ba0 f i eyes_dx9.obj
 0001:00004bd0       ?GetName@CShader@SDK_EyeRefract_dx9@@UBEPBDXZ 10005bd0 f i eye_refract.obj
 0001:00004be0       ?GetFlags@CShader@SDK_EyeRefract_dx9@@UBEHXZ 10005be0 f i eye_refract.obj
 0001:00004bf0       ?OnInitShaderInstance@CShader@SDK_EyeRefract_dx9@@UAEXPAPAVIMaterialVar@@PAVIShaderInit@@PBD@Z 10005bf0 f i eye_refract.obj
 0001:00004d00       ?OnDrawElements@CShader@SDK_EyeRefract_dx9@@UAEXPAPAVIMaterialVar@@PAVIShaderShadow@@PAVIShaderDynamicAPI@@W4VertexCompressionType_t@@PAPAVCBasePerMaterialContextData@@@Z 10005d00 f i eye_refract.obj
 0001:00004f00       ?GetNumParams@CShader@SDK_EyeRefract_dx9@@UBEHXZ 10005f00 f i eye_refract.obj
 0001:00004f10       ?GetParamName@CShader@SDK_EyeRefract_dx9@@UBEPBDH@Z 10005f10 f i eye_refract.obj
 0001:00004f40       ?GetParamHelp@CShader@SDK_EyeRefract_dx9@@UBEPBDH@Z 10005f40 f i eye_refract.obj
 0001:00004f80       ?GetParamType@CShader@SDK_EyeRefract_dx9@@UBE?AW4ShaderParamType_t@@H@Z 10005f80 f i eye_refract.obj
 0001:00004fb0       ?GetParamDefault@CShader@SDK_EyeRefract_dx9@@UBEPBDH@Z 10005fb0 f i eye_refract.obj
 0001:00004ff0       ?GetParamFlags@CShader@SDK_EyeRefract_dx9@@UBEHH@Z 10005ff0 f i eye_refract.obj
 0001:00005030       ?HasDynamicLight@LightState_t@@QAEHXZ 10006030 f i eye_refract_helper.obj
 0001:00005050       ?InitParams_Eyes_Refract@@YAXPAVCBaseVSShader@@PAPAVIMaterialVar@@PBDAAUEye_Refract_Vars_t@@@Z 10006050 f   eye_refract_helper.obj
 0001:00005230       ?Init_Eyes_Refract@@YAXPAVCBaseVSShader@@PAPAVIMaterialVar@@AAUEye_Refract_Vars_t@@@Z 10006230 f   eye_refract_helper.obj
 0001:000052a0       ??4FlashlightState_t@@QAEAAU0@ABU0@@Z 100062a0 f i eye_refract_helper.obj
 0001:00005380       ?Draw_Eyes_Refract_Internal@@YAXPAVCBaseVSShader@@PAPAVIMaterialVar@@PAVIShaderDynamicAPI@@PAVIShaderShadow@@_NAAUEye_Refract_Vars_t@@W4VertexCompressionType_t@@@Z 10006380 f   eye_refract_helper.obj
 0001:000061c0       ?Draw_Eyes_Refract@@YAXPAVCBaseVSShader@@PAPAVIMaterialVar@@PAVIShaderDynamicAPI@@PAVIShaderShadow@@AAUEye_Refract_Vars_t@@W4VertexCompressionType_t@@@Z 100071c0 f   eye_refract_helper.obj
 0001:00006240       ?GetFallbackShader@CShader@SDK_Eyeball@@UBEPBDPAPAVIMaterialVar@@@Z 10007240 f i eyeball.obj
 0001:00006240       ?GetFallbackShader@CShader@SDK_DepthWrite@@UBEPBDPAPAVIMaterialVar@@@Z 10007240 f i dx8fallbacks.obj
 0001:00006250       ?GetName@CShader@SDK_Eyeball@@UBEPBDXZ 10007250 f i eyeball.obj
 0001:00006260       ?GetFlags@CShader@SDK_Eyeball@@UBEHXZ 10007260 f i eyeball.obj
 0001:00006270       ?GetNumParams@CShader@SDK_Eyeball@@UBEHXZ 10007270 f i eyeball.obj
 0001:00006280       ?GetParamName@CShader@SDK_Eyeball@@UBEPBDH@Z 10007280 f i eyeball.obj
 0001:000062b0       ?GetParamHelp@CShader@SDK_Eyeball@@UBEPBDH@Z 100072b0 f i eyeball.obj
 0001:000062f0       ?GetParamType@CShader@SDK_Eyeball@@UBE?AW4ShaderParamType_t@@H@Z 100072f0 f i eyeball.obj
 0001:00006320       ?GetParamDefault@CShader@SDK_Eyeball@@UBEPBDH@Z 10007320 f i eyeball.obj
 0001:00006360       ?GetParamFlags@CShader@SDK_Eyeball@@UBEHH@Z 10007360 f i eyeball.obj
 0001:000063a0       ?GetName@CShader@SDK_EyeGlint_dx9@@UBEPBDXZ 100073a0 f i eyeglint_dx9.obj
 0001:000063b0       ?GetFlags@CShader@SDK_EyeGlint_dx9@@UBEHXZ 100073b0 f i eyeglint_dx9.obj
 0001:000063c0       ?OnDrawElements@CShader@SDK_EyeGlint_dx9@@UAEXPAPAVIMaterialVar@@PAVIShaderShadow@@PAVIShaderDynamicAPI@@W4VertexCompressionType_t@@PAPAVCBasePerMaterialContextData@@@Z 100073c0 f i eyeglint_dx9.obj
 0001:000064c0       ?GetNumParams@CShader@SDK_EyeGlint_dx9@@UBEHXZ 100074c0 f i eyeglint_dx9.obj
 0001:000064d0       ?GetParamName@CShader@SDK_EyeGlint_dx9@@UBEPBDH@Z 100074d0 f i eyeglint_dx9.obj
 0001:00006500       ?GetParamHelp@CShader@SDK_EyeGlint_dx9@@UBEPBDH@Z 10007500 f i eyeglint_dx9.obj
 0001:00006540       ?GetParamType@CShader@SDK_EyeGlint_dx9@@UBE?AW4ShaderParamType_t@@H@Z 10007540 f i eyeglint_dx9.obj
 0001:00006570       ?GetParamDefault@CShader@SDK_EyeGlint_dx9@@UBEPBDH@Z 10007570 f i eyeglint_dx9.obj
 0001:000065b0       ?GetParamFlags@CShader@SDK_EyeGlint_dx9@@UBEHH@Z 100075b0 f i eyeglint_dx9.obj
 0001:000065f0       ?GetFallbackShader@CShader@SDK_eyes@@UBEPBDPAPAVIMaterialVar@@@Z 100075f0 f i eyes.obj
 0001:00006600       ?GetName@CShader@SDK_eyes@@UBEPBDXZ 10007600 f i eyes.obj
 0001:00006610       ?GetFlags@CShader@SDK_eyes@@UBEHXZ 10007610 f i eyes.obj
 0001:00006620       ?GetNumParams@CShader@SDK_eyes@@UBEHXZ 10007620 f i eyes.obj
 0001:00006630       ?SetupVars@CShader@SDK_Eyes_dx8@@QAEXAAUEyes_DX8_DX9_Vars_t@@@Z 10007630 f i eyes.obj
 0001:000066c0       ?NeedsPowerOfTwoFrameBufferTexture@CShader@SDK_Eyes_dx8@@UBE_NPAPAVIMaterialVar@@_N@Z 100076c0 f i eyes.obj
 0001:00006710       ?IsTranslucent@CShader@SDK_Eyes_dx8@@UBE_NPAPAVIMaterialVar@@@Z 10007710 f i eyes.obj
 0001:00006760       ?OnInitShaderParams@CShader@SDK_Eyes_dx8@@UAEXPAPAVIMaterialVar@@PBD@Z 10007760 f i eyes.obj
 0001:00006830       ?GetFallbackShader@CShader@SDK_Eyes_dx8@@UBEPBDPAPAVIMaterialVar@@@Z 10007830 f i eyes.obj
 0001:00006860       ?GetName@CShader@SDK_Eyes_dx8@@UBEPBDXZ 10007860 f i eyes.obj
 0001:00006870       ?GetFlags@CShader@SDK_Eyes_dx8@@UBEHXZ 10007870 f i eyes.obj
 0001:00006880       ?OnInitShaderInstance@CShader@SDK_Eyes_dx8@@UAEXPAPAVIMaterialVar@@PAVIShaderInit@@PBD@Z 10007880 f i eyes.obj
 0001:00006920       ?OnDrawElements@CShader@SDK_Eyes_dx8@@UAEXPAPAVIMaterialVar@@PAVIShaderShadow@@PAVIShaderDynamicAPI@@W4VertexCompressionType_t@@PAPAVCBasePerMaterialContextData@@@Z 10007920 f i eyes.obj
 0001:00006a70       ?GetNumParams@CShader@SDK_Eyes_dx8@@UBEHXZ 10007a70 f i eyes.obj
 0001:00006a80       ?GetParamName@CShader@SDK_eyes@@UBEPBDH@Z 10007a80 f i eyes.obj
 0001:00006ab0       ?GetParamHelp@CShader@SDK_eyes@@UBEPBDH@Z 10007ab0 f i eyes.obj
 0001:00006af0       ?GetParamType@CShader@SDK_eyes@@UBE?AW4ShaderParamType_t@@H@Z 10007af0 f i eyes.obj
 0001:00006b20       ?GetParamDefault@CShader@SDK_eyes@@UBEPBDH@Z 10007b20 f i eyes.obj
 0001:00006b60       ?GetParamFlags@CShader@SDK_eyes@@UBEHH@Z 10007b60 f i eyes.obj
 0001:00006ba0       ?GetParamName@CShader@SDK_Eyes_dx8@@UBEPBDH@Z 10007ba0 f i eyes.obj
 0001:00006bd0       ?GetParamHelp@CShader@SDK_Eyes_dx8@@UBEPBDH@Z 10007bd0 f i eyes.obj
 0001:00006c10       ?GetParamType@CShader@SDK_Eyes_dx8@@UBE?AW4ShaderParamType_t@@H@Z 10007c10 f i eyes.obj
 0001:00006c40       ?GetParamDefault@CShader@SDK_Eyes_dx8@@UBEPBDH@Z 10007c40 f i eyes.obj
 0001:00006c80       ?GetParamFlags@CShader@SDK_Eyes_dx8@@UBEHH@Z 10007c80 f i eyes.obj
 0001:00006cc0       ?SimpleSplineRemapVal@@YAMMMMMM@Z 10007cc0 f i eyes_dx8_dx9_helper.obj
 0001:00006d20       ?InitParamsEyes_DX8_DX9@@YAXPAVCBaseVSShader@@PAPAVIMaterialVar@@PBDAAUEyes_DX8_DX9_Vars_t@@@Z 10007d20 f   eyes_dx8_dx9_helper.obj
 0001:00006db0       ?InitEyes_DX8_DX9@@YAXPAVCBaseVSShader@@PAPAVIMaterialVar@@AAUEyes_DX8_DX9_Vars_t@@@Z 10007db0 f   eyes_dx8_dx9_helper.obj
 0001:00007aa0       ?DrawEyes_DX8_DX9@@YAX_NPAVCBaseVSShader@@PAPAVIMaterialVar@@PAVIShaderDynamicAPI@@PAVIShaderShadow@@AAUEyes_DX8_DX9_Vars_t@@W4VertexCompressionType_t@@@Z 10008aa0 f   eyes_dx8_dx9_helper.obj
 0001:00007b50       ?SetupVars@CShader@SDK_Eyes_dx9@@QAEXAAUEyes_DX8_DX9_Vars_t@@@Z 10008b50 f i eyes_dx9.obj
 0001:00007be0       ?OnInitShaderParams@CShader@SDK_Eyes_dx9@@UAEXPAPAVIMaterialVar@@PBD@Z 10008be0 f i eyes_dx9.obj
 0001:00007c30       ?GetName@CShader@SDK_Eyes_dx9@@UBEPBDXZ 10008c30 f i eyes_dx9.obj
 0001:00007c40       ?GetFlags@CShader@SDK_Eyes_dx9@@UBEHXZ 10008c40 f i eyes_dx9.obj
 0001:00007c50       ?OnInitShaderInstance@CShader@SDK_Eyes_dx9@@UAEXPAPAVIMaterialVar@@PAVIShaderInit@@PBD@Z 10008c50 f i eyes_dx9.obj
 0001:00007c90       ?OnDrawElements@CShader@SDK_Eyes_dx9@@UAEXPAPAVIMaterialVar@@PAVIShaderShadow@@PAVIShaderDynamicAPI@@W4VertexCompressionType_t@@PAPAVCBasePerMaterialContextData@@@Z 10008c90 f i eyes_dx9.obj
 0001:00007cf0       ?GetNumParams@CShader@SDK_Eyes_dx9@@UBEHXZ 10008cf0 f i eyes_dx9.obj
 0001:00007d00       ?GetParamName@CShader@SDK_Eyes_dx9@@UBEPBDH@Z 10008d00 f i eyes_dx9.obj
 0001:00007d30       ?GetParamHelp@CShader@SDK_Eyes_dx9@@UBEPBDH@Z 10008d30 f i eyes_dx9.obj
 0001:00007d70       ?GetParamType@CShader@SDK_Eyes_dx9@@UBE?AW4ShaderParamType_t@@H@Z 10008d70 f i eyes_dx9.obj
 0001:00007da0       ?GetParamDefault@CShader@SDK_Eyes_dx9@@UBEPBDH@Z 10008da0 f i eyes_dx9.obj
 0001:00007de0       ?GetParamFlags@CShader@SDK_Eyes_dx9@@UBEHH@Z 10008de0 f i eyes_dx9.obj
 0001:00007e20       ?InitParamsFleshInteriorBlendedPass@@YAXPAVCBaseVSShader@@PAPAVIMaterialVar@@PBDAAUFleshInteriorBlendedPassVars_t@@@Z 10008e20 f   flesh_interior_blended_pass_helper.obj
 0001:000080d0       ?InitFleshInteriorBlendedPass@@YAXPAVCBaseVSShader@@PAPAVIMaterialVar@@AAUFleshInteriorBlendedPassVars_t@@@Z 100090d0 f   flesh_interior_blended_pass_helper.obj
 0001:00008120       ?DrawFleshInteriorBlendedPass@@YAXPAVCBaseVSShader@@PAPAVIMaterialVar@@PAVIShaderDynamicAPI@@PAVIShaderShadow@@AAUFleshInteriorBlendedPassVars_t@@W4VertexCompressionType_t@@@Z 10009120 f   flesh_interior_blended_pass_helper.obj
 0001:00008930       ?OnInitShaderParams@CShader@SDK_LightmappedGeneric_Decal@@UAEXPAPAVIMaterialVar@@PBD@Z 10009930 f i lightmappedgeneric_decal.obj
 0001:000089d0       ?GetName@CShader@SDK_LightmappedGeneric_Decal@@UBEPBDXZ 100099d0 f i lightmappedgeneric_decal.obj
 0001:000089e0       ?GetFlags@CShader@SDK_LightmappedGeneric_Decal@@UBEHXZ 100099e0 f i lightmappedgeneric_decal.obj
 0001:000089f0       ?OnInitShaderInstance@CShader@SDK_LightmappedGeneric_Decal@@UAEXPAPAVIMaterialVar@@PAVIShaderInit@@PBD@Z 100099f0 f i lightmappedgeneric_decal.obj
 0001:00008a80       ?DrawDecal@CShader@SDK_LightmappedGeneric_Decal@@QAEXPAPAVIMaterialVar@@PAVIShaderDynamicAPI@@PAVIShaderShadow@@@Z 10009a80 f i lightmappedgeneric_decal.obj
 0001:00008c00       ?OnDrawElements@CShader@SDK_LightmappedGeneric_Decal@@UAEXPAPAVIMaterialVar@@PAVIShaderShadow@@PAVIShaderDynamicAPI@@W4VertexCompressionType_t@@PAPAVCBasePerMaterialContextData@@@Z 10009c00 f i lightmappedgeneric_decal.obj
 0001:00008c60       ?GetNumParams@CShader@SDK_LightmappedGeneric_Decal@@UBEHXZ 10009c60 f i lightmappedgeneric_decal.obj
 0001:00008c70       ?GetParamName@CShader@SDK_LightmappedGeneric_Decal@@UBEPBDH@Z 10009c70 f i lightmappedgeneric_decal.obj
 0001:00008ca0       ?GetParamHelp@CShader@SDK_LightmappedGeneric_Decal@@UBEPBDH@Z 10009ca0 f i lightmappedgeneric_decal.obj
 0001:00008ce0       ?GetParamType@CShader@SDK_LightmappedGeneric_Decal@@UBE?AW4ShaderParamType_t@@H@Z 10009ce0 f i lightmappedgeneric_decal.obj
 0001:00008d10       ?GetParamDefault@CShader@SDK_LightmappedGeneric_Decal@@UBEPBDH@Z 10009d10 f i lightmappedgeneric_decal.obj
 0001:00008d50       ?GetParamFlags@CShader@SDK_LightmappedGeneric_Decal@@UBEHH@Z 10009d50 f i lightmappedgeneric_decal.obj
 0001:00008d90       ?SetupVars@CShader@SDK_LightmappedGeneric_DX9@@QAEXAAULightmappedGeneric_DX9_Vars_t@@@Z 10009d90 f i lightmappedgeneric_dx9.obj
 0001:00008f50       ?GetFallbackShader@CShader@SDK_LightmappedGeneric_DX9@@UBEPBDPAPAVIMaterialVar@@@Z 10009f50 f i lightmappedgeneric_dx9.obj
 0001:00008f80       ?OnInitShaderParams@CShader@SDK_LightmappedGeneric_DX9@@UAEXPAPAVIMaterialVar@@PBD@Z 10009f80 f i lightmappedgeneric_dx9.obj
 0001:00008fe0       ?GetName@CShader@SDK_LightmappedGeneric_DX9@@UBEPBDXZ 10009fe0 f i lightmappedgeneric_dx9.obj
 0001:00008ff0       ?GetFlags@CShader@SDK_LightmappedGeneric_DX9@@UBEHXZ 10009ff0 f i lightmappedgeneric_dx9.obj
 0001:00009000       ?OnInitShaderInstance@CShader@SDK_LightmappedGeneric_DX9@@UAEXPAPAVIMaterialVar@@PAVIShaderInit@@PBD@Z 1000a000 f i lightmappedgeneric_dx9.obj
 0001:00009050       ?OnDrawElements@CShader@SDK_LightmappedGeneric_DX9@@UAEXPAPAVIMaterialVar@@PAVIShaderShadow@@PAVIShaderDynamicAPI@@W4VertexCompressionType_t@@PAPAVCBasePerMaterialContextData@@@Z 1000a050 f i lightmappedgeneric_dx9.obj
 0001:000090c0       ?GetNumParams@CShader@SDK_LightmappedGeneric_DX9@@UBEHXZ 1000a0c0 f i lightmappedgeneric_dx9.obj
 0001:000090d0       ?GetParamName@CShader@SDK_LightmappedGeneric_DX9@@UBEPBDH@Z 1000a0d0 f i lightmappedgeneric_dx9.obj
 0001:00009100       ?GetParamHelp@CShader@SDK_LightmappedGeneric_DX9@@UBEPBDH@Z 1000a100 f i lightmappedgeneric_dx9.obj
 0001:00009140       ?GetParamType@CShader@SDK_LightmappedGeneric_DX9@@UBE?AW4ShaderParamType_t@@H@Z 1000a140 f i lightmappedgeneric_dx9.obj
 0001:00009170       ?GetParamDefault@CShader@SDK_LightmappedGeneric_DX9@@UBEPBDH@Z 1000a170 f i lightmappedgeneric_dx9.obj
 0001:000091b0       ?GetParamFlags@CShader@SDK_LightmappedGeneric_DX9@@UBEHH@Z 1000a1b0 f i lightmappedgeneric_dx9.obj
 0001:000091f0       ??0sdk_lightmappedgeneric_ps20_Static_Index@@QAE@XZ 1000a1f0 f i lightmappedgeneric_dx9_helper.obj
 0001:00009240       ?GetIndex@sdk_lightmappedgeneric_ps20_Static_Index@@QAEHXZ 1000a240 f i lightmappedgeneric_dx9_helper.obj
 0001:000092d0       ??0sdk_lightmappedgeneric_ps20b_Static_Index@@QAE@XZ 1000a2d0 f i lightmappedgeneric_dx9_helper.obj
 0001:00009320       ?GetIndex@sdk_lightmappedgeneric_ps20b_Static_Index@@QAEHXZ 1000a320 f i lightmappedgeneric_dx9_helper.obj
 0001:000093b0       ?InitLightmappedGeneric_DX9@@YAXPAVCBaseVSShader@@PAPAVIMaterialVar@@AAULightmappedGeneric_DX9_Vars_t@@@Z 1000a3b0 f   lightmappedgeneric_dx9_helper.obj
 0001:00009610       ?InitParamsLightmappedGeneric_DX9@@YAXPAVCBaseVSShader@@PAPAVIMaterialVar@@PBDAAULightmappedGeneric_DX9_Vars_t@@@Z 1000a610 f   lightmappedgeneric_dx9_helper.obj
 0001:00009bb0       ??_GCLightmappedGeneric_DX9_Context@@UAEPAXI@Z 1000abb0 f i lightmappedgeneric_dx9_helper.obj
 0001:00009bb0       ??_ECLightmappedGeneric_DX9_Context@@UAEPAXI@Z 1000abb0 f i lightmappedgeneric_dx9_helper.obj
 0001:00009bf0       ?SetVertexShaderTextureTransform@?$CCommandBufferBuilder@V?$CFixedCommandStorageBuffer@$0DOI@@@@@QAEXHH@Z 1000abf0 f i lightmappedgeneric_dx9_helper.obj
 0001:00009ce0       ?SetVertexShaderTextureScaledTransform@?$CCommandBufferBuilder@V?$CFixedCommandStorageBuffer@$0DOI@@@@@QAEXHHH@Z 1000ace0 f i lightmappedgeneric_dx9_helper.obj
 0001:00009e60       ?DrawLightmappedGeneric_DX9_Internal@@YAXPAVCBaseVSShader@@PAPAVIMaterialVar@@_NPAVIShaderDynamicAPI@@PAVIShaderShadow@@AAULightmappedGeneric_DX9_Vars_t@@PAPAVCBasePerMaterialContextData@@@Z 1000ae60 f   lightmappedgeneric_dx9_helper.obj
 0001:0000be90       ?DrawLightmappedGeneric_DX9@@YAXPAVCBaseVSShader@@PAPAVIMaterialVar@@PAVIShaderDynamicAPI@@PAVIShaderShadow@@AAULightmappedGeneric_DX9_Vars_t@@PAPAVCBasePerMaterialContextData@@@Z 1000ce90 f   lightmappedgeneric_dx9_helper.obj
 0001:0000bf00       ?GetFallbackShader@CShader@SDK_LightmappedReflective@@UBEPBDPAPAVIMaterialVar@@@Z 1000cf00 f i lightmappedreflective.obj
 0001:0000bf10       ?GetName@CShader@SDK_LightmappedReflective@@UBEPBDXZ 1000cf10 f i lightmappedreflective.obj
 0001:0000bf20       ?GetFlags@CShader@SDK_LightmappedReflective@@UBEHXZ 1000cf20 f i lightmappedreflective.obj
 0001:0000bf30       ?GetNumParams@CShader@SDK_LightmappedReflective@@UBEHXZ 1000cf30 f i lightmappedreflective.obj
 0001:0000bf40       ?OnInitShaderParams@CShader@SDK_LightmappedReflective_DX90@@UAEXPAPAVIMaterialVar@@PBD@Z 1000cf40 f i lightmappedreflective.obj
 0001:0000c010       ?GetName@CShader@SDK_LightmappedReflective_DX90@@UBEPBDXZ 1000d010 f i lightmappedreflective.obj
 0001:0000c020       ?GetFlags@CShader@SDK_LightmappedReflective_DX90@@UBEHXZ 1000d020 f i lightmappedreflective.obj
 0001:0000c030       ?OnInitShaderInstance@CShader@SDK_LightmappedReflective_DX90@@UAEXPAPAVIMaterialVar@@PAVIShaderInit@@PBD@Z 1000d030 f i lightmappedreflective.obj
 0001:0000c0f0       ?DrawReflectionRefraction@CShader@SDK_LightmappedReflective_DX90@@QAEXPAPAVIMaterialVar@@PAVIShaderShadow@@PAVIShaderDynamicAPI@@_N3@Z 1000d0f0 f i lightmappedreflective.obj
 0001:0000c640       ?OnDrawElements@CShader@SDK_LightmappedReflective_DX90@@UAEXPAPAVIMaterialVar@@PAVIShaderShadow@@PAVIShaderDynamicAPI@@W4VertexCompressionType_t@@PAPAVCBasePerMaterialContextData@@@Z 1000d640 f i lightmappedreflective.obj
 0001:0000c6b0       ?GetNumParams@CShader@SDK_LightmappedReflective_DX90@@UBEHXZ 1000d6b0 f i lightmappedreflective.obj
 0001:0000c6c0       ?GetParamName@CShader@SDK_LightmappedReflective@@UBEPBDH@Z 1000d6c0 f i lightmappedreflective.obj
 0001:0000c6f0       ?GetParamHelp@CShader@SDK_LightmappedReflective@@UBEPBDH@Z 1000d6f0 f i lightmappedreflective.obj
 0001:0000c730       ?GetParamType@CShader@SDK_LightmappedReflective@@UBE?AW4ShaderParamType_t@@H@Z 1000d730 f i lightmappedreflective.obj
 0001:0000c760       ?GetParamDefault@CShader@SDK_LightmappedReflective@@UBEPBDH@Z 1000d760 f i lightmappedreflective.obj
 0001:0000c7a0       ?GetParamFlags@CShader@SDK_LightmappedReflective@@UBEHH@Z 1000d7a0 f i lightmappedreflective.obj
 0001:0000c7e0       ?GetParamName@CShader@SDK_LightmappedReflective_DX90@@UBEPBDH@Z 1000d7e0 f i lightmappedreflective.obj
 0001:0000c810       ?GetParamHelp@CShader@SDK_LightmappedReflective_DX90@@UBEPBDH@Z 1000d810 f i lightmappedreflective.obj
 0001:0000c850       ?GetParamType@CShader@SDK_LightmappedReflective_DX90@@UBE?AW4ShaderParamType_t@@H@Z 1000d850 f i lightmappedreflective.obj
 0001:0000c880       ?GetParamDefault@CShader@SDK_LightmappedReflective_DX90@@UBEPBDH@Z 1000d880 f i lightmappedreflective.obj
 0001:0000c8c0       ?GetParamFlags@CShader@SDK_LightmappedReflective_DX90@@UBEHH@Z 1000d8c0 f i lightmappedreflective.obj
 0001:0000c900       ?OnInitShaderParams@CShader@SDK_LightmappedTwoTexture@@UAEXPAPAVIMaterialVar@@PBD@Z 1000d900 f i lightmappedtwotexture.obj
 0001:0000c9e0       ?GetName@CShader@SDK_LightmappedTwoTexture@@UBEPBDXZ 1000d9e0 f i lightmappedtwotexture.obj
 0001:0000c9f0       ?GetFlags@CShader@SDK_LightmappedTwoTexture@@UBEHXZ 1000d9f0 f i lightmappedtwotexture.obj
 0001:0000ca00       ?OnInitShaderInstance@CShader@SDK_LightmappedTwoTexture@@UAEXPAPAVIMaterialVar@@PAVIShaderInit@@PBD@Z 1000da00 f i lightmappedtwotexture.obj
 0001:0000cb20       ?GetFallbackShader@CShader@SDK_LightmappedTwoTexture@@UBEPBDPAPAVIMaterialVar@@@Z 1000db20 f i lightmappedtwotexture.obj
 0001:0000cb50       ?OnDrawElements@CShader@SDK_LightmappedTwoTexture@@UAEXPAPAVIMaterialVar@@PAVIShaderShadow@@PAVIShaderDynamicAPI@@W4VertexCompressionType_t@@PAPAVCBasePerMaterialContextData@@@Z 1000db50 f i lightmappedtwotexture.obj
 0001:0000cbd0       ?GetNumParams@CShader@SDK_LightmappedTwoTexture@@UBEHXZ 1000dbd0 f i lightmappedtwotexture.obj
 0001:0000cbe0       ?GetParamName@CShader@SDK_LightmappedTwoTexture@@UBEPBDH@Z 1000dbe0 f i lightmappedtwotexture.obj
 0001:0000cc10       ?GetParamHelp@CShader@SDK_LightmappedTwoTexture@@UBEPBDH@Z 1000dc10 f i lightmappedtwotexture.obj
 0001:0000cc50       ?GetParamType@CShader@SDK_LightmappedTwoTexture@@UBE?AW4ShaderParamType_t@@H@Z 1000dc50 f i lightmappedtwotexture.obj
 0001:0000cc80       ?GetParamDefault@CShader@SDK_LightmappedTwoTexture@@UBEPBDH@Z 1000dc80 f i lightmappedtwotexture.obj
 0001:0000ccc0       ?GetParamFlags@CShader@SDK_LightmappedTwoTexture@@UBEHH@Z 1000dcc0 f i lightmappedtwotexture.obj
 0001:0000cd00       ?GetFallbackShader@CShader@SDK_Refract@@UBEPBDPAPAVIMaterialVar@@@Z 1000dd00 f i refract.obj
 0001:0000cd10       ?GetName@CShader@SDK_Refract@@UBEPBDXZ 1000dd10 f i refract.obj
 0001:0000cd20       ?GetFlags@CShader@SDK_Refract@@UBEHXZ 1000dd20 f i refract.obj
 0001:0000cd30       ?GetNumParams@CShader@SDK_Refract@@UBEHXZ 1000dd30 f i refract.obj
 0001:0000cd40       ?SetupVars@CShader@SDK_Refract_DX90@@QAEXAAURefract_DX9_Vars_t@@@Z 1000dd40 f i refract.obj
 0001:0000ce20       ?OnInitShaderParams@CShader@SDK_Refract_DX90@@UAEXPAPAVIMaterialVar@@PBD@Z 1000de20 f i refract.obj
 0001:0000ce70       ?GetFallbackShader@CShader@SDK_Refract_DX90@@UBEPBDPAPAVIMaterialVar@@@Z 1000de70 f i refract.obj
 0001:0000cea0       ?GetName@CShader@SDK_Refract_DX90@@UBEPBDXZ 1000dea0 f i refract.obj
 0001:0000ceb0       ?GetFlags@CShader@SDK_Refract_DX90@@UBEHXZ 1000deb0 f i refract.obj
 0001:0000cec0       ?OnInitShaderInstance@CShader@SDK_Refract_DX90@@UAEXPAPAVIMaterialVar@@PAVIShaderInit@@PBD@Z 1000dec0 f i refract.obj
 0001:0000cf00       ?OnDrawElements@CShader@SDK_Refract_DX90@@UAEXPAPAVIMaterialVar@@PAVIShaderShadow@@PAVIShaderDynamicAPI@@W4VertexCompressionType_t@@PAPAVCBasePerMaterialContextData@@@Z 1000df00 f i refract.obj
 0001:0000cf80       ?GetNumParams@CShader@SDK_Refract_DX90@@UBEHXZ 1000df80 f i refract.obj
 0001:0000cf90       ?GetParamName@CShader@SDK_Refract@@UBEPBDH@Z 1000df90 f i refract.obj
 0001:0000cfc0       ?GetParamHelp@CShader@SDK_Refract@@UBEPBDH@Z 1000dfc0 f i refract.obj
 0001:0000d000       ?GetParamType@CShader@SDK_Refract@@UBE?AW4ShaderParamType_t@@H@Z 1000e000 f i refract.obj
 0001:0000d030       ?GetParamDefault@CShader@SDK_Refract@@UBEPBDH@Z 1000e030 f i refract.obj
 0001:0000d070       ?GetParamFlags@CShader@SDK_Refract@@UBEHH@Z 1000e070 f i refract.obj
 0001:0000d0b0       ?GetParamName@CShader@SDK_Refract_DX90@@UBEPBDH@Z 1000e0b0 f i refract.obj
 0001:0000d0e0       ?GetParamHelp@CShader@SDK_Refract_DX90@@UBEPBDH@Z 1000e0e0 f i refract.obj
 0001:0000d120       ?GetParamType@CShader@SDK_Refract_DX90@@UBE?AW4ShaderParamType_t@@H@Z 1000e120 f i refract.obj
 0001:0000d150       ?GetParamDefault@CShader@SDK_Refract_DX90@@UBEPBDH@Z 1000e150 f i refract.obj
 0001:0000d190       ?GetParamFlags@CShader@SDK_Refract_DX90@@UBEHH@Z 1000e190 f i refract.obj
 0001:0000d1d0       ?InitParamsRefract_DX9@@YAXPAVCBaseVSShader@@PAPAVIMaterialVar@@PBDAAURefract_DX9_Vars_t@@@Z 1000e1d0 f   refract_dx9_helper.obj
 0001:0000d340       ?InitRefract_DX9@@YAXPAVCBaseVSShader@@PAPAVIMaterialVar@@AAURefract_DX9_Vars_t@@@Z 1000e340 f   refract_dx9_helper.obj
 0001:0000d3e0       ?DrawRefract_DX9@@YAXPAVCBaseVSShader@@PAPAVIMaterialVar@@PAVIShaderDynamicAPI@@PAVIShaderShadow@@AAURefract_DX9_Vars_t@@W4VertexCompressionType_t@@@Z 1000e3e0 f   refract_dx9_helper.obj
 0001:0000dad0       ?GetFallbackShader@CShader@SDK_screenspace_general@@UBEPBDPAPAVIMaterialVar@@@Z 1000ead0 f i screenspace_general.obj
 0001:0000dae0       ?GetName@CShader@SDK_screenspace_general@@UBEPBDXZ 1000eae0 f i screenspace_general.obj
 0001:0000daf0       ?GetFlags@CShader@SDK_screenspace_general@@UBEHXZ 1000eaf0 f i screenspace_general.obj
 0001:0000db00       ?GetNumParams@CShader@SDK_screenspace_general@@UBEHXZ 1000eb00 f i screenspace_general.obj
 0001:0000db10       ?GetName@CShader@SDK_screenspace_general_dx9@@UBEPBDXZ 1000eb10 f i screenspace_general.obj
 0001:0000db20       ?GetFlags@CShader@SDK_screenspace_general_dx9@@UBEHXZ 1000eb20 f i screenspace_general.obj
 0001:0000db30       ?OnInitShaderInstance@CShader@SDK_screenspace_general_dx9@@UAEXPAPAVIMaterialVar@@PAVIShaderInit@@PBD@Z 1000eb30 f i screenspace_general.obj
 0001:0000dbc0       ?GetFallbackShader@CShader@SDK_screenspace_general_dx9@@UBEPBDPAPAVIMaterialVar@@@Z 1000ebc0 f i screenspace_general.obj
 0001:0000dbf0       ?OnDrawElements@CShader@SDK_screenspace_general_dx9@@UAEXPAPAVIMaterialVar@@PAVIShaderShadow@@PAVIShaderDynamicAPI@@W4VertexCompressionType_t@@PAPAVCBasePerMaterialContextData@@@Z 1000ebf0 f i screenspace_general.obj
 0001:0000e1b0       ?GetNumParams@CShader@SDK_screenspace_general_dx9@@UBEHXZ 1000f1b0 f i screenspace_general.obj
 0001:0000e1c0       ?GetParamName@CShader@SDK_screenspace_general@@UBEPBDH@Z 1000f1c0 f i screenspace_general.obj
 0001:0000e1f0       ?GetParamHelp@CShader@SDK_screenspace_general@@UBEPBDH@Z 1000f1f0 f i screenspace_general.obj
 0001:0000e230       ?GetParamType@CShader@SDK_screenspace_general@@UBE?AW4ShaderParamType_t@@H@Z 1000f230 f i screenspace_general.obj
 0001:0000e260       ?GetParamDefault@CShader@SDK_screenspace_general@@UBEPBDH@Z 1000f260 f i screenspace_general.obj
 0001:0000e2a0       ?GetParamFlags@CShader@SDK_screenspace_general@@UBEHH@Z 1000f2a0 f i screenspace_general.obj
 0001:0000e2e0       ?GetParamName@CShader@SDK_screenspace_general_dx9@@UBEPBDH@Z 1000f2e0 f i screenspace_general.obj
 0001:0000e310       ?GetParamHelp@CShader@SDK_screenspace_general_dx9@@UBEPBDH@Z 1000f310 f i screenspace_general.obj
 0001:0000e350       ?GetParamType@CShader@SDK_screenspace_general_dx9@@UBE?AW4ShaderParamType_t@@H@Z 1000f350 f i screenspace_general.obj
 0001:0000e380       ?GetParamDefault@CShader@SDK_screenspace_general_dx9@@UBEPBDH@Z 1000f380 f i screenspace_general.obj
 0001:0000e3c0       ?GetParamFlags@CShader@SDK_screenspace_general_dx9@@UBEHH@Z 1000f3c0 f i screenspace_general.obj
 0001:0000e400       ?InitSkin_DX9@@YAXPAVCBaseVSShader@@PAPAVIMaterialVar@@AAUVertexLitGeneric_DX9_Vars_t@@@Z 1000f400 f   skin_dx9_helper.obj
 0001:0000e6f0       ??0sdk_spritecard_ps20b_Static_Index@@QAE@XZ 1000f6f0 f i spritecard.obj
 0001:0000e730       ?GetIndex@sdk_spritecard_ps20b_Static_Index@@QAEHXZ 1000f730 f i spritecard.obj
 0001:0000e770       ?OnInitShaderParams@CShader@SDK_Spritecard@@UAEXPAPAVIMaterialVar@@PBD@Z 1000f770 f i spritecard.obj
 0001:0000ead0       ?GetFallbackShader@CShader@SDK_Spritecard@@UBEPBDPAPAVIMaterialVar@@@Z 1000fad0 f i spritecard.obj
 0001:0000eb00       ?GetName@CShader@SDK_Spritecard@@UBEPBDXZ 1000fb00 f i spritecard.obj
 0001:0000eb10       ?GetFlags@CShader@SDK_Spritecard@@UBEHXZ 1000fb10 f i spritecard.obj
 0001:0000eb20       ?OnInitShaderInstance@CShader@SDK_Spritecard@@UAEXPAPAVIMaterialVar@@PAVIShaderInit@@PBD@Z 1000fb20 f i spritecard.obj
 0001:0000eb90       ?OnDrawElements@CShader@SDK_Spritecard@@UAEXPAPAVIMaterialVar@@PAVIShaderShadow@@PAVIShaderDynamicAPI@@W4VertexCompressionType_t@@PAPAVCBasePerMaterialContextData@@@Z 1000fb90 f i spritecard.obj
 0001:0000f190       ?GetNumParams@CShader@SDK_Spritecard@@UBEHXZ 10010190 f i spritecard.obj
 0001:0000f1a0       ?GetParamName@CShader@SDK_Spritecard@@UBEPBDH@Z 100101a0 f i spritecard.obj
 0001:0000f1d0       ?GetParamHelp@CShader@SDK_Spritecard@@UBEPBDH@Z 100101d0 f i spritecard.obj
 0001:0000f210       ?GetParamType@CShader@SDK_Spritecard@@UBE?AW4ShaderParamType_t@@H@Z 10010210 f i spritecard.obj
 0001:0000f240       ?GetParamDefault@CShader@SDK_Spritecard@@UBEPBDH@Z 10010240 f i spritecard.obj
 0001:0000f280       ?GetParamFlags@CShader@SDK_Spritecard@@UBEHH@Z 10010280 f i spritecard.obj
 0001:0000f2c0       ?GetFallbackShader@CShader@SDK_Teeth@@UBEPBDPAPAVIMaterialVar@@@Z 100102c0 f i teeth.obj
 0001:0000f2d0       ?GetName@CShader@SDK_Teeth@@UBEPBDXZ 100102d0 f i teeth.obj
 0001:0000f2e0       ?GetFlags@CShader@SDK_Teeth@@UBEHXZ 100102e0 f i teeth.obj
 0001:0000f2f0       ?GetNumParams@CShader@SDK_Teeth@@UBEHXZ 100102f0 f i teeth.obj
 0001:0000f300       ?OnInitShaderParams@CShader@SDK_Teeth_DX9@@UAEXPAPAVIMaterialVar@@PBD@Z 10010300 f i teeth.obj
 0001:0000f370       ?GetFallbackShader@CShader@SDK_Teeth_DX9@@UBEPBDPAPAVIMaterialVar@@@Z 10010370 f i teeth.obj
 0001:0000f3a0       ?GetName@CShader@SDK_Teeth_DX9@@UBEPBDXZ 100103a0 f i teeth.obj
 0001:0000f3b0       ?GetFlags@CShader@SDK_Teeth_DX9@@UBEHXZ 100103b0 f i teeth.obj
 0001:0000f3c0       ?OnInitShaderInstance@CShader@SDK_Teeth_DX9@@UAEXPAPAVIMaterialVar@@PAVIShaderInit@@PBD@Z 100103c0 f i teeth.obj
 0001:0000f400       ?DrawUsingVertexShader@CShader@SDK_Teeth_DX9@@QAEXPAPAVIMaterialVar@@PAVIShaderDynamicAPI@@PAVIShaderShadow@@W4VertexCompressionType_t@@@Z 10010400 f i teeth.obj
 0001:0000fbe0       ?DrawFlashlight@CShader@SDK_Teeth_DX9@@QAEXPAPAVIMaterialVar@@PAVIShaderDynamicAPI@@PAVIShaderShadow@@W4VertexCompressionType_t@@@Z 10010be0 f i teeth.obj
 0001:000102f0       ?OnDrawElements@CShader@SDK_Teeth_DX9@@UAEXPAPAVIMaterialVar@@PAVIShaderShadow@@PAVIShaderDynamicAPI@@W4VertexCompressionType_t@@PAPAVCBasePerMaterialContextData@@@Z 100112f0 f i teeth.obj
 0001:00010370       ?GetNumParams@CShader@SDK_Teeth_DX9@@UBEHXZ 10011370 f i teeth.obj
 0001:00010380       ?GetParamName@CShader@SDK_Teeth@@UBEPBDH@Z 10011380 f i teeth.obj
 0001:000103b0       ?GetParamHelp@CShader@SDK_Teeth@@UBEPBDH@Z 100113b0 f i teeth.obj
 0001:000103f0       ?GetParamType@CShader@SDK_Teeth@@UBE?AW4ShaderParamType_t@@H@Z 100113f0 f i teeth.obj
 0001:00010420       ?GetParamDefault@CShader@SDK_Teeth@@UBEPBDH@Z 10011420 f i teeth.obj
 0001:00010460       ?GetParamFlags@CShader@SDK_Teeth@@UBEHH@Z 10011460 f i teeth.obj
 0001:000104a0       ?GetParamName@CShader@SDK_Teeth_DX9@@UBEPBDH@Z 100114a0 f i teeth.obj
 0001:000104d0       ?GetParamHelp@CShader@SDK_Teeth_DX9@@UBEPBDH@Z 100114d0 f i teeth.obj
 0001:00010510       ?GetParamType@CShader@SDK_Teeth_DX9@@UBE?AW4ShaderParamType_t@@H@Z 10011510 f i teeth.obj
 0001:00010540       ?GetParamDefault@CShader@SDK_Teeth_DX9@@UBEPBDH@Z 10011540 f i teeth.obj
 0001:00010580       ?GetParamFlags@CShader@SDK_Teeth_DX9@@UBEHH@Z 10011580 f i teeth.obj
 0001:000105c0       ?SetupVars@CShader@SDK_UnlitGeneric@@QAEXAAUVertexLitGeneric_DX9_Vars_t@@@Z 100115c0 f i unlitgeneric_dx9.obj
 0001:00010850       ?OnInitShaderParams@CShader@SDK_UnlitGeneric@@UAEXPAPAVIMaterialVar@@PBD@Z 10011850 f i unlitgeneric_dx9.obj
 0001:000108b0       ?GetFallbackShader@CShader@SDK_UnlitGeneric@@UBEPBDPAPAVIMaterialVar@@@Z 100118b0 f i unlitgeneric_dx9.obj
 0001:000108e0       ?GetName@CShader@SDK_UnlitGeneric@@UBEPBDXZ 100118e0 f i unlitgeneric_dx9.obj
 0001:000108f0       ?GetFlags@CShader@SDK_UnlitGeneric@@UBEHXZ 100118f0 f i unlitgeneric_dx9.obj
 0001:00010900       ?OnInitShaderInstance@CShader@SDK_UnlitGeneric@@UAEXPAPAVIMaterialVar@@PAVIShaderInit@@PBD@Z 10011900 f i unlitgeneric_dx9.obj
 0001:00010950       ?OnDrawElements@CShader@SDK_UnlitGeneric@@UAEXPAPAVIMaterialVar@@PAVIShaderShadow@@PAVIShaderDynamicAPI@@W4VertexCompressionType_t@@PAPAVCBasePerMaterialContextData@@@Z 10011950 f i unlitgeneric_dx9.obj
 0001:00010a00       ?GetNumParams@CShader@SDK_UnlitGeneric@@UBEHXZ 10011a00 f i unlitgeneric_dx9.obj
 0001:00010a10       ?GetParamName@CShader@SDK_UnlitGeneric@@UBEPBDH@Z 10011a10 f i unlitgeneric_dx9.obj
 0001:00010a40       ?GetParamHelp@CShader@SDK_UnlitGeneric@@UBEPBDH@Z 10011a40 f i unlitgeneric_dx9.obj
 0001:00010a80       ?GetParamType@CShader@SDK_UnlitGeneric@@UBE?AW4ShaderParamType_t@@H@Z 10011a80 f i unlitgeneric_dx9.obj
 0001:00010ab0       ?GetParamDefault@CShader@SDK_UnlitGeneric@@UBEPBDH@Z 10011ab0 f i unlitgeneric_dx9.obj
 0001:00010af0       ?GetParamFlags@CShader@SDK_UnlitGeneric@@UBEHH@Z 10011af0 f i unlitgeneric_dx9.obj
 0001:00010b30       ?GetFallbackShader@CShader@SDK_UnlitTwoTexture@@UBEPBDPAPAVIMaterialVar@@@Z 10011b30 f i unlittwotexture_dx9.obj
 0001:00010b40       ?GetName@CShader@SDK_UnlitTwoTexture@@UBEPBDXZ 10011b40 f i unlittwotexture_dx9.obj
 0001:00010b50       ?GetFlags@CShader@SDK_UnlitTwoTexture@@UBEHXZ 10011b50 f i unlittwotexture_dx9.obj
 0001:00010b60       ?GetNumParams@CShader@SDK_UnlitTwoTexture@@UBEHXZ 10011b60 f i unlittwotexture_dx9.obj
 0001:00010b70       ?GetFallbackShader@CShader@SDK_UnlitTwoTexture_DX9@@UBEPBDPAPAVIMaterialVar@@@Z 10011b70 f i unlittwotexture_dx9.obj
 0001:00010ba0       ?NeedsPowerOfTwoFrameBufferTexture@CShader@SDK_UnlitTwoTexture_DX9@@UBE_NPAPAVIMaterialVar@@_N@Z 10011ba0 f i unlittwotexture_dx9.obj
 0001:00010bf0       ?IsTranslucent@CShader@SDK_UnlitTwoTexture_DX9@@UBE_NPAPAVIMaterialVar@@@Z 10011bf0 f i unlittwotexture_dx9.obj
 0001:00010c40       ?OnInitShaderParams@CShader@SDK_UnlitTwoTexture_DX9@@UAEXPAPAVIMaterialVar@@PBD@Z 10011c40 f i unlittwotexture_dx9.obj
 0001:00010cf0       ?GetName@CShader@SDK_UnlitTwoTexture_DX9@@UBEPBDXZ 10011cf0 f i unlittwotexture_dx9.obj
 0001:00010d00       ?GetFlags@CShader@SDK_UnlitTwoTexture_DX9@@UBEHXZ 10011d00 f i unlittwotexture_dx9.obj
 0001:00010d10       ?OnInitShaderInstance@CShader@SDK_UnlitTwoTexture_DX9@@UAEXPAPAVIMaterialVar@@PAVIShaderInit@@PBD@Z 10011d10 f i unlittwotexture_dx9.obj
 0001:00010dc0       ?OnDrawElements@CShader@SDK_UnlitTwoTexture_DX9@@UAEXPAPAVIMaterialVar@@PAVIShaderShadow@@PAVIShaderDynamicAPI@@W4VertexCompressionType_t@@PAPAVCBasePerMaterialContextData@@@Z 10011dc0 f i unlittwotexture_dx9.obj
 0001:00011200       ?GetNumParams@CShader@SDK_UnlitTwoTexture_DX9@@UBEHXZ 10012200 f i unlittwotexture_dx9.obj
 0001:00011210       ?GetParamName@CShader@SDK_UnlitTwoTexture@@UBEPBDH@Z 10012210 f i unlittwotexture_dx9.obj
 0001:00011240       ?GetParamHelp@CShader@SDK_UnlitTwoTexture@@UBEPBDH@Z 10012240 f i unlittwotexture_dx9.obj
 0001:00011280       ?GetParamType@CShader@SDK_UnlitTwoTexture@@UBE?AW4ShaderParamType_t@@H@Z 10012280 f i unlittwotexture_dx9.obj
 0001:000112b0       ?GetParamDefault@CShader@SDK_UnlitTwoTexture@@UBEPBDH@Z 100122b0 f i unlittwotexture_dx9.obj
 0001:000112f0       ?GetParamFlags@CShader@SDK_UnlitTwoTexture@@UBEHH@Z 100122f0 f i unlittwotexture_dx9.obj
 0001:00011330       ?GetParamName@CShader@SDK_UnlitTwoTexture_DX9@@UBEPBDH@Z 10012330 f i unlittwotexture_dx9.obj
 0001:00011360       ?GetParamHelp@CShader@SDK_UnlitTwoTexture_DX9@@UBEPBDH@Z 10012360 f i unlittwotexture_dx9.obj
 0001:000113a0       ?GetParamType@CShader@SDK_UnlitTwoTexture_DX9@@UBE?AW4ShaderParamType_t@@H@Z 100123a0 f i unlittwotexture_dx9.obj
 0001:000113d0       ?GetParamDefault@CShader@SDK_UnlitTwoTexture_DX9@@UBEPBDH@Z 100123d0 f i unlittwotexture_dx9.obj
 0001:00011410       ?GetParamFlags@CShader@SDK_UnlitTwoTexture_DX9@@UBEHH@Z 10012410 f i unlittwotexture_dx9.obj
 0001:00011450       ?SetupVars@CShader@SDK_VertexLitGeneric@@QAEXAAUVertexLitGeneric_DX9_Vars_t@@@Z 10012450 f i vertexlitgeneric_dx9.obj
 0001:000116d0       ?NeedsPowerOfTwoFrameBufferTexture@CShader@SDK_VertexLitGeneric@@UBE_NPAPAVIMaterialVar@@_N@Z 100126d0 f i vertexlitgeneric_dx9.obj
 0001:00011720       ?IsTranslucent@CShader@SDK_VertexLitGeneric@@UBE_NPAPAVIMaterialVar@@@Z 10012720 f i vertexlitgeneric_dx9.obj
 0001:00011770       ?SetupVarsFleshInteriorBlendedPass@CShader@SDK_VertexLitGeneric@@QAEXAAUFleshInteriorBlendedPassVars_t@@@Z 10012770 f i vertexlitgeneric_dx9.obj
 0001:00011830       ?OnInitShaderParams@CShader@SDK_VertexLitGeneric@@UAEXPAPAVIMaterialVar@@PBD@Z 10012830 f i vertexlitgeneric_dx9.obj
 0001:00011a40       ?GetFallbackShader@CShader@SDK_VertexLitGeneric@@UBEPBDPAPAVIMaterialVar@@@Z 10012a40 f i vertexlitgeneric_dx9.obj
 0001:00011aa0       ?GetName@CShader@SDK_VertexLitGeneric@@UBEPBDXZ 10012aa0 f i vertexlitgeneric_dx9.obj
 0001:00011ab0       ?GetFlags@CShader@SDK_VertexLitGeneric@@UBEHXZ 10012ab0 f i vertexlitgeneric_dx9.obj
 0001:00011ac0       ?OnInitShaderInstance@CShader@SDK_VertexLitGeneric@@UAEXPAPAVIMaterialVar@@PAVIShaderInit@@PBD@Z 10012ac0 f i vertexlitgeneric_dx9.obj
 0001:00011c40       ?OnDrawElements@CShader@SDK_VertexLitGeneric@@UAEXPAPAVIMaterialVar@@PAVIShaderShadow@@PAVIShaderDynamicAPI@@W4VertexCompressionType_t@@PAPAVCBasePerMaterialContextData@@@Z 10012c40 f i vertexlitgeneric_dx9.obj
 0001:00011ee0       ?GetNumParams@CShader@SDK_VertexLitGeneric@@UBEHXZ 10012ee0 f i vertexlitgeneric_dx9.obj
 0001:00011ef0       ?Grow@?$CUtlMemory@PAVCShaderParam@void_postworldcomposite@@H@@QAEXH@Z 10012ef0 f i void_postworldcomposite.obj
 0001:00011ef0       ?Grow@?$CUtlMemory@PAVCShaderParam@SDK_Eyes_dx8@@H@@QAEXH@Z 10012ef0 f i eyes.obj
 0001:00011ef0       ?Grow@?$CUtlMemory@PAVCShaderParam@SDK_Water_DX90@@H@@QAEXH@Z 10012ef0 f i water.obj
 0001:00011ef0       ?Grow@?$CUtlMemory@PAVCShaderParam@SDK_Aftershock_dx9@@H@@QAEXH@Z 10012ef0 f i aftershock.obj
 0001:00011ef0       ?Grow@?$CUtlMemory@PAVCShaderParam@SDK_VortWarp_DX9@@H@@QAEXH@Z 10012ef0 f i vortwarp_dx9.obj
 0001:00011ef0       ?Grow@?$CUtlMemory@PAVCShaderParam@SDK_WorldVertexTransition_DX9@@H@@QAEXH@Z 10012ef0 f i worldvertextransition.obj
 0001:00011ef0       ?Grow@?$CUtlMemory@PAVCShaderParam@SDK_Cable_DX9@@H@@QAEXH@Z 10012ef0 f i cable_dx9.obj
 0001:00011ef0       ?Grow@?$CUtlMemory@PAVCShaderParam@SDK_EyeRefract_dx9@@H@@QAEXH@Z 10012ef0 f i eye_refract.obj
 0001:00011ef0       ?Grow@?$CUtlMemory@PAVCShaderParam@SDK_Teeth_DX9@@H@@QAEXH@Z 10012ef0 f i teeth.obj
 0001:00011ef0       ?Grow@?$CUtlMemory@PAVCShaderParam@SDK_Refract_DX90@@H@@QAEXH@Z 10012ef0 f i refract.obj
 0001:00011ef0       ?Grow@?$CUtlMemory@PAVCShaderParam@SDK_VertexLitGeneric@@H@@QAEXH@Z 10012ef0 f i vertexlitgeneric_dx9.obj
 0001:00011ef0       ?Grow@?$CUtlMemory@PAVIShader@@H@@QAEXH@Z 10012ef0 f i shaderlib:ShaderDLL.obj
 0001:00011ef0       ?Grow@?$CUtlMemory@PAVCShaderParam@SDK_UnlitGeneric@@H@@QAEXH@Z 10012ef0 f i unlitgeneric_dx9.obj
 0001:00011ef0       ?Grow@?$CUtlMemory@PAVCShaderParam@SDK_LightmappedTwoTexture@@H@@QAEXH@Z 10012ef0 f i lightmappedtwotexture.obj
 0001:00011ef0       ?Grow@?$CUtlMemory@PAVCShaderParam@void_postgodray@@H@@QAEXH@Z 10012ef0 f i void_postgodray.obj
 0001:00011ef0       ?Grow@?$CUtlMemory@PAVCShaderParam@SDK_Bloom@@H@@QAEXH@Z 10012ef0 f i Bloom.obj
 0001:00011ef0       ?Grow@?$CUtlMemory@PAVCShaderParam@Void_CelShadeLightmapped@@H@@QAEXH@Z 10012ef0 f i void_celshadelightmapped.obj
 0001:00011ef0       ?Grow@?$CUtlMemory@PAVCShaderParam@SDK_Eyes_dx9@@H@@QAEXH@Z 10012ef0 f i eyes_dx9.obj
 0001:00011ef0       ?Grow@?$CUtlMemory@PAVCShaderParam@SDK_Spritecard@@H@@QAEXH@Z 10012ef0 f i spritecard.obj
 0001:00011ef0       ?Grow@?$CUtlMemory@PAVCShaderParam@SDK_LightmappedReflective_DX90@@H@@QAEXH@Z 10012ef0 f i lightmappedreflective.obj
 0001:00011ef0       ?Grow@?$CUtlMemory@PAVCShaderParam@SDK_screenspace_general_dx9@@H@@QAEXH@Z 10012ef0 f i screenspace_general.obj
 0001:00011ef0       ?Grow@?$CUtlMemory@PAVCShaderParam@Void_PostComposite@@H@@QAEXH@Z 10012ef0 f i void_postcomposite.obj
 0001:00011ef0       ?Grow@?$CUtlMemory@PAVCShaderParam@SDK_Core_DX90@@H@@QAEXH@Z 10012ef0 f i core_dx9.obj
 0001:00011ef0       ?Grow@?$CUtlMemory@PAVCShaderParam@SDK_LightmappedGeneric_DX9@@H@@QAEXH@Z 10012ef0 f i lightmappedgeneric_dx9.obj
 0001:00011ef0       ?Grow@?$CUtlMemory@PAVCShaderParam@SDK_WorldTwoTextureBlend@@H@@QAEXH@Z 10012ef0 f i worldtwotextureblend.obj
 0001:00011ef0       ?Grow@?$CUtlMemory@PAVCShaderParam@SDK_UnlitTwoTexture_DX9@@H@@QAEXH@Z 10012ef0 f i unlittwotexture_dx9.obj
 0001:00011ef0       ?Grow@?$CUtlMemory@PAVCShaderParam@void_postblur@@H@@QAEXH@Z 10012ef0 f i void_postblur.obj
 0001:00011fa0       ?GetParamName@CShader@SDK_VertexLitGeneric@@UBEPBDH@Z 10012fa0 f i vertexlitgeneric_dx9.obj
 0001:00011fd0       ?GetParamHelp@CShader@SDK_VertexLitGeneric@@UBEPBDH@Z 10012fd0 f i vertexlitgeneric_dx9.obj
 0001:00012010       ?GetParamType@CShader@SDK_VertexLitGeneric@@UBE?AW4ShaderParamType_t@@H@Z 10013010 f i vertexlitgeneric_dx9.obj
 0001:00012040       ?GetParamDefault@CShader@SDK_VertexLitGeneric@@UBEPBDH@Z 10013040 f i vertexlitgeneric_dx9.obj
 0001:00012080       ?GetParamFlags@CShader@SDK_VertexLitGeneric@@UBEHH@Z 10013080 f i vertexlitgeneric_dx9.obj
 0001:000120c0       ?InsertBefore@?$CUtlVector@PAVCShaderParam@SDK_Spritecard@@V?$CUtlMemory@PAVCShaderParam@SDK_Spritecard@@H@@@@QAEHHABQAVCShaderParam@SDK_Spritecard@@@Z 100130c0 f i spritecard.obj
 0001:000120c0       ?InsertBefore@?$CUtlVector@PAVCShaderParam@Void_PostComposite@@V?$CUtlMemory@PAVCShaderParam@Void_PostComposite@@H@@@@QAEHHABQAVCShaderParam@Void_PostComposite@@@Z 100130c0 f i void_postcomposite.obj
 0001:000120c0       ?InsertBefore@?$CUtlVector@PAVCShaderParam@SDK_LightmappedReflective_DX90@@V?$CUtlMemory@PAVCShaderParam@SDK_LightmappedReflective_DX90@@H@@@@QAEHHABQAVCShaderParam@SDK_LightmappedReflective_DX90@@@Z 100130c0 f i lightmappedreflective.obj
 0001:000120c0       ?InsertBefore@?$CUtlVector@PAVCShaderParam@SDK_screenspace_general_dx9@@V?$CUtlMemory@PAVCShaderParam@SDK_screenspace_general_dx9@@H@@@@QAEHHABQAVCShaderParam@SDK_screenspace_general_dx9@@@Z 100130c0 f i screenspace_general.obj
 0001:000120c0       ?InsertBefore@?$CUtlVector@PAVCShaderParam@SDK_WorldTwoTextureBlend@@V?$CUtlMemory@PAVCShaderParam@SDK_WorldTwoTextureBlend@@H@@@@QAEHHABQAVCShaderParam@SDK_WorldTwoTextureBlend@@@Z 100130c0 f i worldtwotextureblend.obj
 0001:000120c0       ?InsertBefore@?$CUtlVector@PAVCShaderParam@SDK_Eyes_dx9@@V?$CUtlMemory@PAVCShaderParam@SDK_Eyes_dx9@@H@@@@QAEHHABQAVCShaderParam@SDK_Eyes_dx9@@@Z 100130c0 f i eyes_dx9.obj
 0001:000120c0       ?InsertBefore@?$CUtlVector@PAVCShaderParam@SDK_Aftershock_dx9@@V?$CUtlMemory@PAVCShaderParam@SDK_Aftershock_dx9@@H@@@@QAEHHABQAVCShaderParam@SDK_Aftershock_dx9@@@Z 100130c0 f i aftershock.obj
 0001:000120c0       ?InsertBefore@?$CUtlVector@PAVCShaderParam@SDK_VortWarp_DX9@@V?$CUtlMemory@PAVCShaderParam@SDK_VortWarp_DX9@@H@@@@QAEHHABQAVCShaderParam@SDK_VortWarp_DX9@@@Z 100130c0 f i vortwarp_dx9.obj
 0001:000120c0       ?InsertBefore@?$CUtlVector@PAVCShaderParam@SDK_Eyes_dx8@@V?$CUtlMemory@PAVCShaderParam@SDK_Eyes_dx8@@H@@@@QAEHHABQAVCShaderParam@SDK_Eyes_dx8@@@Z 100130c0 f i eyes.obj
 0001:000120c0       ?InsertBefore@?$CUtlVector@PAVCShaderParam@SDK_WorldVertexTransition_DX9@@V?$CUtlMemory@PAVCShaderParam@SDK_WorldVertexTransition_DX9@@H@@@@QAEHHABQAVCShaderParam@SDK_WorldVertexTransition_DX9@@@Z 100130c0 f i worldvertextransition.obj
 0001:000120c0       ?InsertBefore@?$CUtlVector@PAVCShaderParam@SDK_Refract_DX90@@V?$CUtlMemory@PAVCShaderParam@SDK_Refract_DX90@@H@@@@QAEHHABQAVCShaderParam@SDK_Refract_DX90@@@Z 100130c0 f i refract.obj
 0001:000120c0       ?InsertBefore@?$CUtlVector@PAVCShaderParam@void_postblur@@V?$CUtlMemory@PAVCShaderParam@void_postblur@@H@@@@QAEHHABQAVCShaderParam@void_postblur@@@Z 100130c0 f i void_postblur.obj
 0001:000120c0       ?InsertBefore@?$CUtlVector@PAVCShaderParam@void_postgodray@@V?$CUtlMemory@PAVCShaderParam@void_postgodray@@H@@@@QAEHHABQAVCShaderParam@void_postgodray@@@Z 100130c0 f i void_postgodray.obj
 0001:000120c0       ?InsertBefore@?$CUtlVector@PAVCShaderParam@SDK_UnlitGeneric@@V?$CUtlMemory@PAVCShaderParam@SDK_UnlitGeneric@@H@@@@QAEHHABQAVCShaderParam@SDK_UnlitGeneric@@@Z 100130c0 f i unlitgeneric_dx9.obj
 0001:000120c0       ?InsertBefore@?$CUtlVector@PAVCShaderParam@SDK_Cable_DX9@@V?$CUtlMemory@PAVCShaderParam@SDK_Cable_DX9@@H@@@@QAEHHABQAVCShaderParam@SDK_Cable_DX9@@@Z 100130c0 f i cable_dx9.obj
 0001:000120c0       ?InsertBefore@?$CUtlVector@PAVCShaderParam@SDK_LightmappedTwoTexture@@V?$CUtlMemory@PAVCShaderParam@SDK_LightmappedTwoTexture@@H@@@@QAEHHABQAVCShaderParam@SDK_LightmappedTwoTexture@@@Z 100130c0 f i lightmappedtwotexture.obj
 0001:000120c0       ?InsertBefore@?$CUtlVector@PAVCShaderParam@SDK_Bloom@@V?$CUtlMemory@PAVCShaderParam@SDK_Bloom@@H@@@@QAEHHABQAVCShaderParam@SDK_Bloom@@@Z 100130c0 f i Bloom.obj
 0001:000120c0       ?InsertBefore@?$CUtlVector@PAVCShaderParam@Void_CelShadeLightmapped@@V?$CUtlMemory@PAVCShaderParam@Void_CelShadeLightmapped@@H@@@@QAEHHABQAVCShaderParam@Void_CelShadeLightmapped@@@Z 100130c0 f i void_celshadelightmapped.obj
 0001:000120c0       ?InsertBefore@?$CUtlVector@PAVIShader@@V?$CUtlMemory@PAVIShader@@H@@@@QAEHHABQAVIShader@@@Z 100130c0 f i shaderlib:ShaderDLL.obj
 0001:000120c0       ?InsertBefore@?$CUtlVector@PAVCShaderParam@SDK_EyeRefract_dx9@@V?$CUtlMemory@PAVCShaderParam@SDK_EyeRefract_dx9@@H@@@@QAEHHABQAVCShaderParam@SDK_EyeRefract_dx9@@@Z 100130c0 f i eye_refract.obj
 0001:000120c0       ?InsertBefore@?$CUtlVector@PAVCShaderParam@SDK_VertexLitGeneric@@V?$CUtlMemory@PAVCShaderParam@SDK_VertexLitGeneric@@H@@@@QAEHHABQAVCShaderParam@SDK_VertexLitGeneric@@@Z 100130c0 f i vertexlitgeneric_dx9.obj
 0001:000120c0       ?InsertBefore@?$CUtlVector@PAVCShaderParam@SDK_LightmappedGeneric_DX9@@V?$CUtlMemory@PAVCShaderParam@SDK_LightmappedGeneric_DX9@@H@@@@QAEHHABQAVCShaderParam@SDK_LightmappedGeneric_DX9@@@Z 100130c0 f i lightmappedgeneric_dx9.obj
 0001:000120c0       ?InsertBefore@?$CUtlVector@PAVCShaderParam@SDK_Teeth_DX9@@V?$CUtlMemory@PAVCShaderParam@SDK_Teeth_DX9@@H@@@@QAEHHABQAVCShaderParam@SDK_Teeth_DX9@@@Z 100130c0 f i teeth.obj
 0001:000120c0       ?InsertBefore@?$CUtlVector@PAVCShaderParam@SDK_Core_DX90@@V?$CUtlMemory@PAVCShaderParam@SDK_Core_DX90@@H@@@@QAEHHABQAVCShaderParam@SDK_Core_DX90@@@Z 100130c0 f i core_dx9.obj
 0001:000120c0       ?InsertBefore@?$CUtlVector@PAVCShaderParam@void_postworldcomposite@@V?$CUtlMemory@PAVCShaderParam@void_postworldcomposite@@H@@@@QAEHHABQAVCShaderParam@void_postworldcomposite@@@Z 100130c0 f i void_postworldcomposite.obj
 0001:000120c0       ?InsertBefore@?$CUtlVector@PAVCShaderParam@SDK_Water_DX90@@V?$CUtlMemory@PAVCShaderParam@SDK_Water_DX90@@H@@@@QAEHHABQAVCShaderParam@SDK_Water_DX90@@@Z 100130c0 f i water.obj
 0001:000120c0       ?InsertBefore@?$CUtlVector@PAVCShaderParam@SDK_UnlitTwoTexture_DX9@@V?$CUtlMemory@PAVCShaderParam@SDK_UnlitTwoTexture_DX9@@H@@@@QAEHHABQAVCShaderParam@SDK_UnlitTwoTexture_DX9@@@Z 100130c0 f i unlittwotexture_dx9.obj
 0001:00012120       ?GetIndex@sdk_vertexlit_and_unlit_generic_vs20_Static_Index@@QAEHXZ 10013120 f i vertexlitgeneric_dx9_helper.obj
 0001:00012150       ?GetIndex@sdk_vertexlit_and_unlit_generic_vs20_Dynamic_Index@@QAEHXZ 10013150 f i vertexlitgeneric_dx9_helper.obj
 0001:00012180       ??0sdk_vertexlit_and_unlit_generic_ps20_Static_Index@@QAE@XZ 10013180 f i vertexlitgeneric_dx9_helper.obj
 0001:000121c0       ?GetIndex@sdk_vertexlit_and_unlit_generic_ps20_Static_Index@@QAEHXZ 100131c0 f i vertexlitgeneric_dx9_helper.obj
 0001:00012230       ??0sdk_vertexlit_and_unlit_generic_ps30_Static_Index@@QAE@XZ 10013230 f i vertexlitgeneric_dx9_helper.obj
 0001:00012230       ??0sdk_vertexlit_and_unlit_generic_ps20b_Static_Index@@QAE@XZ 10013230 f i vertexlitgeneric_dx9_helper.obj
 0001:00012270       ?GetIndex@sdk_vertexlit_and_unlit_generic_ps30_Static_Index@@QAEHXZ 10013270 f i vertexlitgeneric_dx9_helper.obj
 0001:00012270       ?GetIndex@sdk_vertexlit_and_unlit_generic_ps20b_Static_Index@@QAEHXZ 10013270 f i vertexlitgeneric_dx9_helper.obj
 0001:000122f0       ?GetIndex@sdk_vertexlit_and_unlit_generic_bump_ps20_Static_Index@@QAEHXZ 100132f0 f i vertexlitgeneric_dx9_helper.obj
 0001:00012340       ?GetIndex@sdk_vertexlit_and_unlit_generic_bump_ps20b_Static_Index@@QAEHXZ 10013340 f i vertexlitgeneric_dx9_helper.obj
 0001:00012340       ?GetIndex@sdk_vertexlit_and_unlit_generic_bump_ps30_Static_Index@@QAEHXZ 10013340 f i vertexlitgeneric_dx9_helper.obj
 0001:00012390       ?GetIndex@sdk_vertexlit_and_unlit_generic_vs30_Static_Index@@QAEHXZ 10013390 f i vertexlitgeneric_dx9_helper.obj
 0001:000123c0       ??0sdk_vertexlit_and_unlit_generic_vs30_Dynamic_Index@@QAE@XZ 100133c0 f i vertexlitgeneric_dx9_helper.obj
 0001:000123e0       ?GetIndex@sdk_vertexlit_and_unlit_generic_vs30_Dynamic_Index@@QAEHXZ 100133e0 f i vertexlitgeneric_dx9_helper.obj
 0001:00012410       ?InitParamsVertexLitGeneric_DX9@@YAXPAVCBaseVSShader@@PAPAVIMaterialVar@@PBD_NAAUVertexLitGeneric_DX9_Vars_t@@@Z 10013410 f   vertexlitgeneric_dx9_helper.obj
 0001:00012ac0       ?InitVertexLitGeneric_DX9@@YAXPAVCBaseVSShader@@PAPAVIMaterialVar@@_NAAUVertexLitGeneric_DX9_Vars_t@@@Z 10013ac0 f   vertexlitgeneric_dx9_helper.obj
 0001:00012d70       ??_GCVertexLitGeneric_DX9_Context@@UAEPAXI@Z 10013d70 f i vertexlitgeneric_dx9_helper.obj
 0001:00012d70       ??_ECVertexLitGeneric_DX9_Context@@UAEPAXI@Z 10013d70 f i vertexlitgeneric_dx9_helper.obj
 0001:00012d70       ??_GCBasePerMaterialContextData@@UAEPAXI@Z 10013d70 f i lightmappedgeneric_dx9_helper.obj
 0001:00012d70       ??_ECBasePerMaterialContextData@@UAEPAXI@Z 10013d70 f i lightmappedgeneric_dx9_helper.obj
 0001:00012d90       ?SetVertexShaderTextureTransform@?$CCommandBufferBuilder@V?$CFixedCommandStorageBuffer@$0DCA@@@@@QAEXHH@Z 10013d90 f i vertexlitgeneric_dx9_helper.obj
 0001:00012e80       ?SetVertexShaderTextureScaledTransform@?$CCommandBufferBuilder@V?$CFixedCommandStorageBuffer@$0DCA@@@@@QAEXHHH@Z 10013e80 f i vertexlitgeneric_dx9_helper.obj
 0001:00013000       ?SetPixelShaderConstantGammaToLinear@?$CCommandBufferBuilder@V?$CFixedCommandStorageBuffer@$0DCA@@@@@QAEXHH@Z 10014000 f i vertexlitgeneric_dx9_helper.obj
 0001:00015e80       ?DrawVertexLitGeneric_DX9@@YAXPAVCBaseVSShader@@PAPAVIMaterialVar@@PAVIShaderDynamicAPI@@PAVIShaderShadow@@_NAAUVertexLitGeneric_DX9_Vars_t@@W4VertexCompressionType_t@@PAPAVCBasePerMaterialContextData@@@Z 10016e80 f   vertexlitgeneric_dx9_helper.obj
 0001:00015ee0       ??0sdk_vortwarp_ps20b_Static_Index@@QAE@XZ 10016ee0 f i vortwarp_dx9.obj
 0001:00015f10       ?GetFallbackShader@CShader@SDK_VortWarp@@UBEPBDPAPAVIMaterialVar@@@Z 10016f10 f i vortwarp_dx9.obj
 0001:00015f20       ?GetName@CShader@SDK_VortWarp@@UBEPBDXZ 10016f20 f i vortwarp_dx9.obj
 0001:00015f30       ?GetFlags@CShader@SDK_VortWarp@@UBEHXZ 10016f30 f i vortwarp_dx9.obj
 0001:00015f40       ?DrawVortWarp_DX9@@YAXPAVCBaseVSShader@@PAPAVIMaterialVar@@PAVIShaderDynamicAPI@@PAVIShaderShadow@@_N4AAUVortWarp_DX9_Vars_t@@W4VertexCompressionType_t@@@Z 10016f40 f   vortwarp_dx9.obj
 0001:00016bc0       ?GetNumParams@CShader@SDK_VortWarp@@UBEHXZ 10017bc0 f i vortwarp_dx9.obj
 0001:00016bd0       ?SetupVars@CShader@SDK_VortWarp_DX9@@QAEXAAUVortWarp_DX9_Vars_t@@@Z 10017bd0 f i vortwarp_dx9.obj
 0001:00016d40       ?OnInitShaderParams@CShader@SDK_VortWarp_DX9@@UAEXPAPAVIMaterialVar@@PBD@Z 10017d40 f i vortwarp_dx9.obj
 0001:00016e20       ?GetFallbackShader@CShader@SDK_VortWarp_DX9@@UBEPBDPAPAVIMaterialVar@@@Z 10017e20 f i vortwarp_dx9.obj
 0001:00016e50       ?GetName@CShader@SDK_VortWarp_DX9@@UBEPBDXZ 10017e50 f i vortwarp_dx9.obj
 0001:00016e60       ?GetFlags@CShader@SDK_VortWarp_DX9@@UBEHXZ 10017e60 f i vortwarp_dx9.obj
 0001:00016e70       ?OnInitShaderInstance@CShader@SDK_VortWarp_DX9@@UAEXPAPAVIMaterialVar@@PAVIShaderInit@@PBD@Z 10017e70 f i vortwarp_dx9.obj
 0001:00016f10       ?OnDrawElements@CShader@SDK_VortWarp_DX9@@UAEXPAPAVIMaterialVar@@PAVIShaderShadow@@PAVIShaderDynamicAPI@@W4VertexCompressionType_t@@PAPAVCBasePerMaterialContextData@@@Z 10017f10 f i vortwarp_dx9.obj
 0001:00016fd0       ?GetNumParams@CShader@SDK_VortWarp_DX9@@UBEHXZ 10017fd0 f i vortwarp_dx9.obj
 0001:00016fe0       ?GetParamName@CShader@SDK_VortWarp@@UBEPBDH@Z 10017fe0 f i vortwarp_dx9.obj
 0001:00017010       ?GetParamHelp@CShader@SDK_VortWarp@@UBEPBDH@Z 10018010 f i vortwarp_dx9.obj
 0001:00017050       ?GetParamType@CShader@SDK_VortWarp@@UBE?AW4ShaderParamType_t@@H@Z 10018050 f i vortwarp_dx9.obj
 0001:00017080       ?GetParamDefault@CShader@SDK_VortWarp@@UBEPBDH@Z 10018080 f i vortwarp_dx9.obj
 0001:000170c0       ?GetParamFlags@CShader@SDK_VortWarp@@UBEHH@Z 100180c0 f i vortwarp_dx9.obj
 0001:00017100       ?GetParamName@CShader@SDK_VortWarp_DX9@@UBEPBDH@Z 10018100 f i vortwarp_dx9.obj
 0001:00017130       ?GetParamHelp@CShader@SDK_VortWarp_DX9@@UBEPBDH@Z 10018130 f i vortwarp_dx9.obj
 0001:00017170       ?GetParamType@CShader@SDK_VortWarp_DX9@@UBE?AW4ShaderParamType_t@@H@Z 10018170 f i vortwarp_dx9.obj
 0001:000171a0       ?GetParamDefault@CShader@SDK_VortWarp_DX9@@UBEPBDH@Z 100181a0 f i vortwarp_dx9.obj
 0001:000171e0       ?GetParamFlags@CShader@SDK_VortWarp_DX9@@UBEHH@Z 100181e0 f i vortwarp_dx9.obj
 0001:00017220       ?GetFallbackShader@CShader@SDK_Water@@UBEPBDPAPAVIMaterialVar@@@Z 10018220 f i water.obj
 0001:00017230       ?GetName@CShader@SDK_Water@@UBEPBDXZ 10018230 f i water.obj
 0001:00017240       ?GetFlags@CShader@SDK_Water@@UBEHXZ 10018240 f i water.obj
 0001:00017250       ?GetNumParams@CShader@SDK_Water@@UBEHXZ 10018250 f i water.obj
 0001:00017260       ?OnInitShaderParams@CShader@SDK_Water_DX90@@UAEXPAPAVIMaterialVar@@PBD@Z 10018260 f i water.obj
 0001:00017500       ?GetFallbackShader@CShader@SDK_Water_DX90@@UBEPBDPAPAVIMaterialVar@@@Z 10018500 f i water.obj
 0001:00017530       ?GetName@CShader@SDK_Water_DX90@@UBEPBDXZ 10018530 f i water.obj
 0001:00017540       ?GetFlags@CShader@SDK_Water_DX90@@UBEHXZ 10018540 f i water.obj
 0001:00017550       ?OnInitShaderInstance@CShader@SDK_Water_DX90@@UAEXPAPAVIMaterialVar@@PAVIShaderInit@@PBD@Z 10018550 f i water.obj
 0001:00017600       ?DrawReflectionRefraction@CShader@SDK_Water_DX90@@QAEXPAPAVIMaterialVar@@PAVIShaderShadow@@PAVIShaderDynamicAPI@@_N3@Z 10018600 f i water.obj
 0001:00017d30       ?DrawCheapWater@CShader@SDK_Water_DX90@@QAEXPAPAVIMaterialVar@@PAVIShaderShadow@@PAVIShaderDynamicAPI@@_N3@Z 10018d30 f i water.obj
 0001:000181c0       ?GetNumParams@CShader@SDK_Water_DX90@@UBEHXZ 100191c0 f i water.obj
 0001:000181d0       ?OnDrawElements@CShader@SDK_Water_DX90@@UAEXPAPAVIMaterialVar@@PAVIShaderShadow@@PAVIShaderDynamicAPI@@W4VertexCompressionType_t@@PAPAVCBasePerMaterialContextData@@@Z 100191d0 f i water.obj
 0001:00018300       ?GetName@CShader@SDK_Water_DX9_HDR@SDK_Water_DX90@@UBEPBDXZ 10019300 f i water.obj
 0001:00018310       ?GetFlags@CShader@SDK_Water_DX9_HDR@SDK_Water_DX90@@UBEHXZ 10019310 f i water.obj
 0001:00018320       ?GetFallbackShader@CShader@SDK_Water_DX9_HDR@SDK_Water_DX90@@UBEPBDPAPAVIMaterialVar@@@Z 10019320 f i water.obj
 0001:00018340       ?GetParamName@CShader@SDK_Water@@UBEPBDH@Z 10019340 f i water.obj
 0001:00018370       ?GetParamHelp@CShader@SDK_Water@@UBEPBDH@Z 10019370 f i water.obj
 0001:000183b0       ?GetParamType@CShader@SDK_Water@@UBE?AW4ShaderParamType_t@@H@Z 100193b0 f i water.obj
 0001:000183e0       ?GetParamDefault@CShader@SDK_Water@@UBEPBDH@Z 100193e0 f i water.obj
 0001:00018420       ?GetParamFlags@CShader@SDK_Water@@UBEHH@Z 10019420 f i water.obj
 0001:00018460       ?GetParamName@CShader@SDK_Water_DX90@@UBEPBDH@Z 10019460 f i water.obj
 0001:00018490       ?GetParamHelp@CShader@SDK_Water_DX90@@UBEPBDH@Z 10019490 f i water.obj
 0001:000184d0       ?GetParamType@CShader@SDK_Water_DX90@@UBE?AW4ShaderParamType_t@@H@Z 100194d0 f i water.obj
 0001:00018500       ?GetParamDefault@CShader@SDK_Water_DX90@@UBEPBDH@Z 10019500 f i water.obj
 0001:00018540       ?GetParamFlags@CShader@SDK_Water_DX90@@UBEHH@Z 10019540 f i water.obj
 0001:00018580       ?GetFallbackShader@CShader@SDK_WorldTwoTextureBlend@@UBEPBDPAPAVIMaterialVar@@@Z 10019580 f i worldtwotextureblend.obj
 0001:000185c0       ?OnInitShaderParams@CShader@SDK_WorldTwoTextureBlend@@UAEXPAPAVIMaterialVar@@PBD@Z 100195c0 f i worldtwotextureblend.obj
 0001:00018830       ?GetName@CShader@SDK_WorldTwoTextureBlend@@UBEPBDXZ 10019830 f i worldtwotextureblend.obj
 0001:00018840       ?GetFlags@CShader@SDK_WorldTwoTextureBlend@@UBEHXZ 10019840 f i worldtwotextureblend.obj
 0001:00018850       ?OnInitShaderInstance@CShader@SDK_WorldTwoTextureBlend@@UAEXPAPAVIMaterialVar@@PAVIShaderInit@@PBD@Z 10019850 f i worldtwotextureblend.obj
 0001:00018960       ?DrawPass@CShader@SDK_WorldTwoTextureBlend@@QAEXPAPAVIMaterialVar@@PAVIShaderDynamicAPI@@PAVIShaderShadow@@_NW4VertexCompressionType_t@@@Z 10019960 f i worldtwotextureblend.obj
 0001:00019260       ?OnDrawElements@CShader@SDK_WorldTwoTextureBlend@@UAEXPAPAVIMaterialVar@@PAVIShaderShadow@@PAVIShaderDynamicAPI@@W4VertexCompressionType_t@@PAPAVCBasePerMaterialContextData@@@Z 1001a260 f i worldtwotextureblend.obj
 0001:000192d0       ?GetNumParams@CShader@SDK_WorldTwoTextureBlend@@UBEHXZ 1001a2d0 f i worldtwotextureblend.obj
 0001:000192e0       ?GetParamName@CShader@SDK_WorldTwoTextureBlend@@UBEPBDH@Z 1001a2e0 f i worldtwotextureblend.obj
 0001:00019310       ?GetParamHelp@CShader@SDK_WorldTwoTextureBlend@@UBEPBDH@Z 1001a310 f i worldtwotextureblend.obj
 0001:00019350       ?GetParamType@CShader@SDK_WorldTwoTextureBlend@@UBE?AW4ShaderParamType_t@@H@Z 1001a350 f i worldtwotextureblend.obj
 0001:00019380       ?GetParamDefault@CShader@SDK_WorldTwoTextureBlend@@UBEPBDH@Z 1001a380 f i worldtwotextureblend.obj
 0001:000193c0       ?GetParamFlags@CShader@SDK_WorldTwoTextureBlend@@UBEHH@Z 1001a3c0 f i worldtwotextureblend.obj
 0001:00019400       ??0sdk_worldvertexalpha_ps20b_Static_Index@@QAE@XZ 1001a400 f i worldvertexalpha.obj
 0001:00019420       ?OnInitShaderParams@CShader@SDK_WorldVertexAlpha@@UAEXPAPAVIMaterialVar@@PBD@Z 1001a420 f i worldvertexalpha.obj
 0001:00019450       ?GetName@CShader@SDK_WorldVertexAlpha@@UBEPBDXZ 1001a450 f i worldvertexalpha.obj
 0001:00019460       ?GetFlags@CShader@SDK_WorldVertexAlpha@@UBEHXZ 1001a460 f i worldvertexalpha.obj
 0001:00019470       ?OnInitShaderInstance@CShader@SDK_WorldVertexAlpha@@UAEXPAPAVIMaterialVar@@PAVIShaderInit@@PBD@Z 1001a470 f i worldvertexalpha.obj
 0001:00019480       ?GetFallbackShader@CShader@SDK_WorldVertexAlpha@@UBEPBDPAPAVIMaterialVar@@@Z 1001a480 f i worldvertexalpha.obj
 0001:00019490       ?OnDrawElements@CShader@SDK_WorldVertexAlpha@@UAEXPAPAVIMaterialVar@@PAVIShaderShadow@@PAVIShaderDynamicAPI@@W4VertexCompressionType_t@@PAPAVCBasePerMaterialContextData@@@Z 1001a490 f i worldvertexalpha.obj
 0001:00019920       ?GetNumParams@CShader@SDK_WorldVertexAlpha@@UBEHXZ 1001a920 f i worldvertexalpha.obj
 0001:00019930       ?GetParamName@CShader@SDK_WorldVertexAlpha@@UBEPBDH@Z 1001a930 f i worldvertexalpha.obj
 0001:00019960       ?GetParamHelp@CShader@SDK_WorldVertexAlpha@@UBEPBDH@Z 1001a960 f i worldvertexalpha.obj
 0001:000199a0       ?GetParamType@CShader@SDK_WorldVertexAlpha@@UBE?AW4ShaderParamType_t@@H@Z 1001a9a0 f i worldvertexalpha.obj
 0001:000199d0       ?GetParamDefault@CShader@SDK_WorldVertexAlpha@@UBEPBDH@Z 1001a9d0 f i worldvertexalpha.obj
 0001:00019a10       ?GetParamFlags@CShader@SDK_WorldVertexAlpha@@UBEHH@Z 1001aa10 f i worldvertexalpha.obj
 0001:00019a50       ?GetFallbackShader@CShader@SDK_WorldVertexTransition@@UBEPBDPAPAVIMaterialVar@@@Z 1001aa50 f i worldvertextransition.obj
 0001:00019a60       ?GetName@CShader@SDK_WorldVertexTransition@@UBEPBDXZ 1001aa60 f i worldvertextransition.obj
 0001:00019a70       ?GetFlags@CShader@SDK_WorldVertexTransition@@UBEHXZ 1001aa70 f i worldvertextransition.obj
 0001:00019a80       ?GetNumParams@CShader@SDK_WorldVertexTransition@@UBEHXZ 1001aa80 f i worldvertextransition.obj
 0001:00019a90       ?SetupVars@CShader@SDK_WorldVertexTransition_DX9@@QAEXAAULightmappedGeneric_DX9_Vars_t@@@Z 1001aa90 f i worldvertextransition.obj
 0001:00019c30       ?GetFallbackShader@CShader@SDK_WorldVertexTransition_DX9@@UBEPBDPAPAVIMaterialVar@@@Z 1001ac30 f i worldvertextransition.obj
 0001:00019c60       ?OnInitShaderParams@CShader@SDK_WorldVertexTransition_DX9@@UAEXPAPAVIMaterialVar@@PBD@Z 1001ac60 f i worldvertextransition.obj
 0001:00019c90       ?GetName@CShader@SDK_WorldVertexTransition_DX9@@UBEPBDXZ 1001ac90 f i worldvertextransition.obj
 0001:00019ca0       ?GetFlags@CShader@SDK_WorldVertexTransition_DX9@@UBEHXZ 1001aca0 f i worldvertextransition.obj
 0001:00019cb0       ?OnInitShaderInstance@CShader@SDK_WorldVertexTransition_DX9@@UAEXPAPAVIMaterialVar@@PAVIShaderInit@@PBD@Z 1001acb0 f i worldvertextransition.obj
 0001:00019ce0       ?OnDrawElements@CShader@SDK_WorldVertexTransition_DX9@@UAEXPAPAVIMaterialVar@@PAVIShaderShadow@@PAVIShaderDynamicAPI@@W4VertexCompressionType_t@@PAPAVCBasePerMaterialContextData@@@Z 1001ace0 f i worldvertextransition.obj
 0001:00019d90       ?GetNumParams@CShader@SDK_WorldVertexTransition_DX9@@UBEHXZ 1001ad90 f i worldvertextransition.obj
 0001:00019da0       ?GetParamName@CShader@SDK_WorldVertexTransition@@UBEPBDH@Z 1001ada0 f i worldvertextransition.obj
 0001:00019dd0       ?GetParamHelp@CShader@SDK_WorldVertexTransition@@UBEPBDH@Z 1001add0 f i worldvertextransition.obj
 0001:00019e10       ?GetParamType@CShader@SDK_WorldVertexTransition@@UBE?AW4ShaderParamType_t@@H@Z 1001ae10 f i worldvertextransition.obj
 0001:00019e40       ?GetParamDefault@CShader@SDK_WorldVertexTransition@@UBEPBDH@Z 1001ae40 f i worldvertextransition.obj
 0001:00019e80       ?GetParamFlags@CShader@SDK_WorldVertexTransition@@UBEHH@Z 1001ae80 f i worldvertextransition.obj
 0001:00019ec0       ?GetParamName@CShader@SDK_WorldVertexTransition_DX9@@UBEPBDH@Z 1001aec0 f i worldvertextransition.obj
 0001:00019ef0       ?GetParamHelp@CShader@SDK_WorldVertexTransition_DX9@@UBEPBDH@Z 1001aef0 f i worldvertextransition.obj
 0001:00019f30       ?GetParamType@CShader@SDK_WorldVertexTransition_DX9@@UBE?AW4ShaderParamType_t@@H@Z 1001af30 f i worldvertextransition.obj
 0001:00019f60       ?GetParamDefault@CShader@SDK_WorldVertexTransition_DX9@@UBEPBDH@Z 1001af60 f i worldvertextransition.obj
 0001:00019fa0       ?GetParamFlags@CShader@SDK_WorldVertexTransition_DX9@@UBEHH@Z 1001afa0 f i worldvertextransition.obj
 0001:00019fe0       ?DrawWorldVertexTransitionEditor_DX8@@YAXPAVCBaseVSShader@@PAPAVIMaterialVar@@PAVIShaderDynamicAPI@@PAVIShaderShadow@@AAUWorldVertexTransitionEditor_DX8_Vars_t@@@Z 1001afe0 f   worldvertextransition_dx8_helper.obj
 0001:0001a120       ?CRC32_Init@@YAXPAK@Z      1001b120 f   checksum_crc.obj
 0001:0001a130       ?CRC32_Final@@YAXPAK@Z     1001b130 f   checksum_crc.obj
 0001:0001a140       ?CRC32_ProcessBuffer@@YAXPAKPBXH@Z 1001b140 f   checksum_crc.obj
 0001:0001a990       ?MD5Init@@YAXPAUMD5Context_t@@@Z 1001b990 f   checksum_md5.obj
 0001:0001a9c0       ?MD5Update@@YAXPAUMD5Context_t@@PBEI@Z 1001b9c0 f   checksum_md5.obj
 0001:0001aa80       ?MD5Final@@YAXQAEPAUMD5Context_t@@@Z 1001ba80 f   checksum_md5.obj
 0001:0001ab10       _DllMain@12                1001bb10 f   shader_dll_verify.obj
 0001:0001ab30       __ftol3                    1001bb30 f   shader_dll_verify.obj
 0001:0001ab40       ?Function1@CShaderDLLVerification@@UAEKPAE@Z 1001bb40 f   shader_dll_verify.obj
 0001:0001abb0       ?Function2@CShaderDLLVerification@@UAEXHHH@Z 1001bbb0 f   shader_dll_verify.obj
 0001:0001abf0       ?OnInitShaderInstance@CShader@SDK_Aftershock@@UAEXPAPAVIMaterialVar@@PAVIShaderInit@@PBD@Z 1001bbf0 f   aftershock.obj
 0001:0001abf0       ?Function3@CShaderDLLVerification@@UAEXHHH@Z 1001bbf0 f   shader_dll_verify.obj
 0001:0001abf0       ?OnInitShaderInstance@CShader@SDK_EyeGlint_dx9@@UAEXPAPAVIMaterialVar@@PAVIShaderInit@@PBD@Z 1001bbf0 f   eyeglint_dx9.obj
 0001:0001abf0       ?OnInitShaderInstance@CShader@SDK_eyes@@UAEXPAPAVIMaterialVar@@PAVIShaderInit@@PBD@Z 1001bbf0 f   eyes.obj
 0001:0001abf0       ?OnInitShaderInstance@CShader@SDK_UnlitTwoTexture@@UAEXPAPAVIMaterialVar@@PAVIShaderInit@@PBD@Z 1001bbf0 f   unlittwotexture_dx9.obj
 0001:0001abf0       ?OnInitShaderInstance@CShader@SDK_Refract@@UAEXPAPAVIMaterialVar@@PAVIShaderInit@@PBD@Z 1001bbf0 f   refract.obj
 0001:0001abf0       ?Function4@CShaderDLLVerification@@UAEXHHH@Z 1001bbf0 f   shader_dll_verify.obj
 0001:0001abf0       ?OnInitShaderInstance@CShader@SDK_EyeGlint@@UAEXPAPAVIMaterialVar@@PAVIShaderInit@@PBD@Z 1001bbf0 f   dx8fallbacks.obj
 0001:0001abf0       ?OnInitShaderInstance@CShader@SDK_VolumeClouds@@UAEXPAPAVIMaterialVar@@PAVIShaderInit@@PBD@Z 1001bbf0 f   dx8fallbacks.obj
 0001:0001abf0       ?OnInitShaderInstance@CShader@SDK_Teeth@@UAEXPAPAVIMaterialVar@@PAVIShaderInit@@PBD@Z 1001bbf0 f   teeth.obj
 0001:0001abf0       ?OnInitShaderInstance@CShader@SDK_LightmappedReflective@@UAEXPAPAVIMaterialVar@@PAVIShaderInit@@PBD@Z 1001bbf0 f   lightmappedreflective.obj
 0001:0001abf0       ?OnInitShaderInstance@CShader@SDK_Eyeball@@UAEXPAPAVIMaterialVar@@PAVIShaderInit@@PBD@Z 1001bbf0 f   eyeball.obj
 0001:0001abf0       ?OnInitShaderInstance@CShader@SDK_AfterShock@@UAEXPAPAVIMaterialVar@@PAVIShaderInit@@PBD@Z 1001bbf0 f   dx8fallbacks.obj
 0001:0001abf0       ?OnInitShaderInstance@CShader@SDK_DepthWrite@@UAEXPAPAVIMaterialVar@@PAVIShaderInit@@PBD@Z 1001bbf0 f   dx8fallbacks.obj
 0001:0001abf0       ?OnInitShaderInstance@CShader@SDK_VortWarp@@UAEXPAPAVIMaterialVar@@PAVIShaderInit@@PBD@Z 1001bbf0 f   vortwarp_dx9.obj
 0001:0001abf0       ?OnInitShaderInstance@CShader@SDK_Core@@UAEXPAPAVIMaterialVar@@PAVIShaderInit@@PBD@Z 1001bbf0 f   core_dx9.obj
 0001:0001abf0       ?OnInitShaderInstance@CShader@SDK_Water@@UAEXPAPAVIMaterialVar@@PAVIShaderInit@@PBD@Z 1001bbf0 f   water.obj
 0001:0001abf0       ?OnInitShaderInstance@CShader@SDK_Cable@@UAEXPAPAVIMaterialVar@@PAVIShaderInit@@PBD@Z 1001bbf0 f   cable_dx9.obj
 0001:0001abf0       ?OnInitShaderInstance@CShader@SDK_EyeRefract@@UAEXPAPAVIMaterialVar@@PAVIShaderInit@@PBD@Z 1001bbf0 f   dx8fallbacks.obj
 0001:0001abf0       ?OnInitShaderInstance@CShader@SDK_screenspace_general@@UAEXPAPAVIMaterialVar@@PAVIShaderInit@@PBD@Z 1001bbf0 f   screenspace_general.obj
 0001:0001abf0       ?OnInitShaderInstance@CShader@SDK_WorldVertexTransition@@UAEXPAPAVIMaterialVar@@PAVIShaderInit@@PBD@Z 1001bbf0 f   worldvertextransition.obj
 0001:0001ac00       ?Function5@CShaderDLLVerification@@UAEKXZ 1001bc00 f   shader_dll_verify.obj
 0001:0001ac10       ?OnInitShaderParams@CShader@Void_CelShadeLightmapped@@UAEXPAPAVIMaterialVar@@PBD@Z 1001bc10 f i void_celshadelightmapped.obj
 0001:0001ac80       ?GetName@CShader@Void_CelShadeLightmapped@@UBEPBDXZ 1001bc80 f i void_celshadelightmapped.obj
 0001:0001ac90       ?GetFlags@CShader@Void_CelShadeLightmapped@@UBEHXZ 1001bc90 f i void_celshadelightmapped.obj
 0001:0001aca0       ?OnInitShaderInstance@CShader@Void_CelShadeLightmapped@@UAEXPAPAVIMaterialVar@@PAVIShaderInit@@PBD@Z 1001bca0 f i void_celshadelightmapped.obj
 0001:0001ad50       ?GetFallbackShader@CShader@void_postgodray@@UBEPBDPAPAVIMaterialVar@@@Z 1001bd50 f i void_postgodray.obj
 0001:0001ad50       ?GetFallbackShader@CShader@Void_PostComposite@@UBEPBDPAPAVIMaterialVar@@@Z 1001bd50 f i void_postcomposite.obj
 0001:0001ad50       ?GetFallbackShader@CShader@SDK_Bloom@@UBEPBDPAPAVIMaterialVar@@@Z 1001bd50 f i Bloom.obj
 0001:0001ad50       ?GetFallbackShader@CShader@Void_CelShadeLightmapped@@UBEPBDPAPAVIMaterialVar@@@Z 1001bd50 f i void_celshadelightmapped.obj
 0001:0001ad50       ?GetFallbackShader@CShader@void_postblur@@UBEPBDPAPAVIMaterialVar@@@Z 1001bd50 f i void_postblur.obj
 0001:0001ad50       ?GetFallbackShader@CShader@void_postworldcomposite@@UBEPBDPAPAVIMaterialVar@@@Z 1001bd50 f i void_postworldcomposite.obj
 0001:0001ad50       ?GetFallbackShader@CShader@SDK_EyeGlint_dx9@@UBEPBDPAPAVIMaterialVar@@@Z 1001bd50 f i eyeglint_dx9.obj
 0001:0001ad80       ?OnDrawElements@CShader@Void_CelShadeLightmapped@@UAEXPAPAVIMaterialVar@@PAVIShaderShadow@@PAVIShaderDynamicAPI@@W4VertexCompressionType_t@@PAPAVCBasePerMaterialContextData@@@Z 1001bd80 f i void_celshadelightmapped.obj
 0001:0001b070       ?GetNumParams@CShader@Void_CelShadeLightmapped@@UBEHXZ 1001c070 f i void_celshadelightmapped.obj
 0001:0001b080       ?GetParamName@CShader@Void_CelShadeLightmapped@@UBEPBDH@Z 1001c080 f i void_celshadelightmapped.obj
 0001:0001b0b0       ?GetParamHelp@CShader@Void_CelShadeLightmapped@@UBEPBDH@Z 1001c0b0 f i void_celshadelightmapped.obj
 0001:0001b0f0       ?GetParamType@CShader@Void_CelShadeLightmapped@@UBE?AW4ShaderParamType_t@@H@Z 1001c0f0 f i void_celshadelightmapped.obj
 0001:0001b120       ?GetParamDefault@CShader@Void_CelShadeLightmapped@@UBEPBDH@Z 1001c120 f i void_celshadelightmapped.obj
 0001:0001b160       ?GetParamFlags@CShader@Void_CelShadeLightmapped@@UBEHH@Z 1001c160 f i void_celshadelightmapped.obj
 0001:0001b1a0       ?GetName@CShader@void_postblur@@UBEPBDXZ 1001c1a0 f i void_postblur.obj
 0001:0001b1b0       ?GetFlags@CShader@void_postblur@@UBEHXZ 1001c1b0 f i void_postblur.obj
 0001:0001b1c0       ?OnInitShaderInstance@CShader@void_postblur@@UAEXPAPAVIMaterialVar@@PAVIShaderInit@@PBD@Z 1001c1c0 f i void_postblur.obj
 0001:0001b1f0       ?OnDrawElements@CShader@void_postblur@@UAEXPAPAVIMaterialVar@@PAVIShaderShadow@@PAVIShaderDynamicAPI@@W4VertexCompressionType_t@@PAPAVCBasePerMaterialContextData@@@Z 1001c1f0 f i void_postblur.obj
 0001:0001b2e0       ?GetNumParams@CShader@void_postblur@@UBEHXZ 1001c2e0 f i void_postblur.obj
 0001:0001b2f0       ?GetParamName@CShader@void_postblur@@UBEPBDH@Z 1001c2f0 f i void_postblur.obj
 0001:0001b320       ?GetParamHelp@CShader@void_postblur@@UBEPBDH@Z 1001c320 f i void_postblur.obj
 0001:0001b360       ?GetParamType@CShader@void_postblur@@UBE?AW4ShaderParamType_t@@H@Z 1001c360 f i void_postblur.obj
 0001:0001b390       ?GetParamDefault@CShader@void_postblur@@UBEPBDH@Z 1001c390 f i void_postblur.obj
 0001:0001b3d0       ?GetParamFlags@CShader@void_postblur@@UBEHH@Z 1001c3d0 f i void_postblur.obj
 0001:0001b410       ?GetName@CShader@Void_PostComposite@@UBEPBDXZ 1001c410 f i void_postcomposite.obj
 0001:0001b420       ?GetFlags@CShader@Void_PostComposite@@UBEHXZ 1001c420 f i void_postcomposite.obj
 0001:0001b430       ?OnInitShaderInstance@CShader@Void_PostComposite@@UAEXPAPAVIMaterialVar@@PAVIShaderInit@@PBD@Z 1001c430 f i void_postcomposite.obj
 0001:0001b4b0       ?OnDrawElements@CShader@Void_PostComposite@@UAEXPAPAVIMaterialVar@@PAVIShaderShadow@@PAVIShaderDynamicAPI@@W4VertexCompressionType_t@@PAPAVCBasePerMaterialContextData@@@Z 1001c4b0 f i void_postcomposite.obj
 0001:0001b5d0       ?GetNumParams@CShader@Void_PostComposite@@UBEHXZ 1001c5d0 f i void_postcomposite.obj
 0001:0001b5e0       ?GetParamName@CShader@Void_PostComposite@@UBEPBDH@Z 1001c5e0 f i void_postcomposite.obj
 0001:0001b610       ?GetParamHelp@CShader@Void_PostComposite@@UBEPBDH@Z 1001c610 f i void_postcomposite.obj
 0001:0001b650       ?GetParamType@CShader@Void_PostComposite@@UBE?AW4ShaderParamType_t@@H@Z 1001c650 f i void_postcomposite.obj
 0001:0001b680       ?GetParamDefault@CShader@Void_PostComposite@@UBEPBDH@Z 1001c680 f i void_postcomposite.obj
 0001:0001b6c0       ?GetParamFlags@CShader@Void_PostComposite@@UBEHH@Z 1001c6c0 f i void_postcomposite.obj
 0001:0001b700       ?GetName@CShader@void_postgodray@@UBEPBDXZ 1001c700 f i void_postgodray.obj
 0001:0001b710       ?GetFlags@CShader@void_postgodray@@UBEHXZ 1001c710 f i void_postgodray.obj
 0001:0001b720       ?OnInitShaderInstance@CShader@void_postgodray@@UAEXPAPAVIMaterialVar@@PAVIShaderInit@@PBD@Z 1001c720 f i void_postgodray.obj
 0001:0001b750       ?OnDrawElements@CShader@void_postgodray@@UAEXPAPAVIMaterialVar@@PAVIShaderShadow@@PAVIShaderDynamicAPI@@W4VertexCompressionType_t@@PAPAVCBasePerMaterialContextData@@@Z 1001c750 f i void_postgodray.obj
 0001:0001b830       ?GetNumParams@CShader@void_postgodray@@UBEHXZ 1001c830 f i void_postgodray.obj
 0001:0001b840       ?GetParamName@CShader@void_postgodray@@UBEPBDH@Z 1001c840 f i void_postgodray.obj
 0001:0001b870       ?GetParamHelp@CShader@void_postgodray@@UBEPBDH@Z 1001c870 f i void_postgodray.obj
 0001:0001b8b0       ?GetParamType@CShader@void_postgodray@@UBE?AW4ShaderParamType_t@@H@Z 1001c8b0 f i void_postgodray.obj
 0001:0001b8e0       ?GetParamDefault@CShader@void_postgodray@@UBEPBDH@Z 1001c8e0 f i void_postgodray.obj
 0001:0001b920       ?GetParamFlags@CShader@void_postgodray@@UBEHH@Z 1001c920 f i void_postgodray.obj
 0001:0001b960       ?GetName@CShader@void_postworldcomposite@@UBEPBDXZ 1001c960 f i void_postworldcomposite.obj
 0001:0001b970       ?GetFlags@CShader@void_postworldcomposite@@UBEHXZ 1001c970 f i void_postworldcomposite.obj
 0001:0001b980       ?OnInitShaderInstance@CShader@void_postworldcomposite@@UAEXPAPAVIMaterialVar@@PAVIShaderInit@@PBD@Z 1001c980 f i void_postworldcomposite.obj
 0001:0001b9d0       ?OnDrawElements@CShader@void_postworldcomposite@@UAEXPAPAVIMaterialVar@@PAVIShaderShadow@@PAVIShaderDynamicAPI@@W4VertexCompressionType_t@@PAPAVCBasePerMaterialContextData@@@Z 1001c9d0 f i void_postworldcomposite.obj
 0001:0001bae0       ?GetNumParams@CShader@void_postworldcomposite@@UBEHXZ 1001cae0 f i void_postworldcomposite.obj
 0001:0001baf0       ?GetParamName@CShader@void_postworldcomposite@@UBEPBDH@Z 1001caf0 f i void_postworldcomposite.obj
 0001:0001bb20       ?GetParamHelp@CShader@void_postworldcomposite@@UBEPBDH@Z 1001cb20 f i void_postworldcomposite.obj
 0001:0001bb60       ?GetParamType@CShader@void_postworldcomposite@@UBE?AW4ShaderParamType_t@@H@Z 1001cb60 f i void_postworldcomposite.obj
 0001:0001bb90       ?GetParamDefault@CShader@void_postworldcomposite@@UBEPBDH@Z 1001cb90 f i void_postworldcomposite.obj
 0001:0001bbd0       ?GetParamFlags@CShader@void_postworldcomposite@@UBEHH@Z 1001cbd0 f i void_postworldcomposite.obj
 0001:0001bc10       ??1?$CUtlVector@PAVCShaderParam@SDK_WorldTwoTextureBlend@@V?$CUtlMemory@PAVCShaderParam@SDK_WorldTwoTextureBlend@@H@@@@QAE@XZ 1001cc10 f i worldtwotextureblend.obj
 0001:0001bc10       ??1?$CUtlVector@PAVCShaderParam@SDK_LightmappedGeneric_Decal@@V?$CUtlMemory@PAVCShaderParam@SDK_LightmappedGeneric_Decal@@H@@@@QAE@XZ 1001cc10 f i lightmappedgeneric_decal.obj
 0001:0001bc10       ??1?$CUtlVector@PAVCShaderParam@SDK_LightmappedReflective@@V?$CUtlMemory@PAVCShaderParam@SDK_LightmappedReflective@@H@@@@QAE@XZ 1001cc10 f i lightmappedreflective.obj
 0001:0001bc10       ??1?$CUtlVector@PAVCShaderParam@SDK_AfterShock@@V?$CUtlMemory@PAVCShaderParam@SDK_AfterShock@@H@@@@QAE@XZ 1001cc10 f i dx8fallbacks.obj
 0001:0001bc10       ??1?$CUtlVector@PAVCShaderParam@SDK_Core_DX90@@V?$CUtlMemory@PAVCShaderParam@SDK_Core_DX90@@H@@@@QAE@XZ 1001cc10 f i core_dx9.obj
 0001:0001bc10       ??1?$CUtlVector@PAVCShaderParam@SDK_EyeGlint_dx9@@V?$CUtlMemory@PAVCShaderParam@SDK_EyeGlint_dx9@@H@@@@QAE@XZ 1001cc10 f i eyeglint_dx9.obj
 0001:0001bc10       ??1?$CUtlVector@PAVCShaderParam@SDK_Core@@V?$CUtlMemory@PAVCShaderParam@SDK_Core@@H@@@@QAE@XZ 1001cc10 f i core_dx9.obj
 0001:0001bc10       ??1?$CUtlVector@PAVCShaderParam@Void_CelShadeLightmapped@@V?$CUtlMemory@PAVCShaderParam@Void_CelShadeLightmapped@@H@@@@QAE@XZ 1001cc10 f i void_celshadelightmapped.obj
 0001:0001bc10       ??1?$CUtlVector@PAVCShaderParam@SDK_VortWarp_DX9@@V?$CUtlMemory@PAVCShaderParam@SDK_VortWarp_DX9@@H@@@@QAE@XZ 1001cc10 f i vortwarp_dx9.obj
 0001:0001bc10       ??1?$CUtlVector@PAVCShaderParam@void_postworldcomposite@@V?$CUtlMemory@PAVCShaderParam@void_postworldcomposite@@H@@@@QAE@XZ 1001cc10 f i void_postworldcomposite.obj
 0001:0001bc10       ??1?$CUtlVector@PAVCShaderParam@SDK_VortWarp@@V?$CUtlMemory@PAVCShaderParam@SDK_VortWarp@@H@@@@QAE@XZ 1001cc10 f i vortwarp_dx9.obj
 0001:0001bc10       ??1?$CUtlVector@PAVCShaderParam@SDK_Water_DX90@@V?$CUtlMemory@PAVCShaderParam@SDK_Water_DX90@@H@@@@QAE@XZ 1001cc10 f i water.obj
 0001:0001bc10       ??1?$CUtlVector@PAVCShaderParam@SDK_DepthWrite@@V?$CUtlMemory@PAVCShaderParam@SDK_DepthWrite@@H@@@@QAE@XZ 1001cc10 f i dx8fallbacks.obj
 0001:0001bc10       ??1?$CUtlVector@PAVCShaderParam@SDK_Refract_DX90@@V?$CUtlMemory@PAVCShaderParam@SDK_Refract_DX90@@H@@@@QAE@XZ 1001cc10 f i refract.obj
 0001:0001bc10       ??1?$CUtlVector@PAVCShaderParam@SDK_WorldVertexAlpha@@V?$CUtlMemory@PAVCShaderParam@SDK_WorldVertexAlpha@@H@@@@QAE@XZ 1001cc10 f i worldvertexalpha.obj
 0001:0001bc10       ??1?$CUtlVector@PAVCShaderParam@SDK_LightmappedGeneric_DX9@@V?$CUtlMemory@PAVCShaderParam@SDK_LightmappedGeneric_DX9@@H@@@@QAE@XZ 1001cc10 f i lightmappedgeneric_dx9.obj
 0001:0001bc10       ??1?$CUtlVector@PAVCShaderParam@SDK_Aftershock_dx9@@V?$CUtlMemory@PAVCShaderParam@SDK_Aftershock_dx9@@H@@@@QAE@XZ 1001cc10 f i aftershock.obj
 0001:0001bc10       ??1?$CUtlVector@PAVCShaderParam@SDK_Eyes_dx8@@V?$CUtlMemory@PAVCShaderParam@SDK_Eyes_dx8@@H@@@@QAE@XZ 1001cc10 f i eyes.obj
 0001:0001bc10       ??1?$CUtlVector@PAVCShaderParam@SDK_Cable@@V?$CUtlMemory@PAVCShaderParam@SDK_Cable@@H@@@@QAE@XZ 1001cc10 f i cable_dx9.obj
 0001:0001bc10       ??1?$CUtlVector@PAVCShaderParam@SDK_UnlitGeneric@@V?$CUtlMemory@PAVCShaderParam@SDK_UnlitGeneric@@H@@@@QAE@XZ 1001cc10 f i unlitgeneric_dx9.obj
 0001:0001bc10       ??1?$CUtlVector@PAVCShaderParam@SDK_LightmappedReflective_DX90@@V?$CUtlMemory@PAVCShaderParam@SDK_LightmappedReflective_DX90@@H@@@@QAE@XZ 1001cc10 f i lightmappedreflective.obj
 0001:0001bc10       ??1?$CUtlVector@PAVCShaderParam@SDK_VertexLitGeneric@@V?$CUtlMemory@PAVCShaderParam@SDK_VertexLitGeneric@@H@@@@QAE@XZ 1001cc10 f i vertexlitgeneric_dx9.obj
 0001:0001bc10       ??1?$CUtlVector@PAVCShaderParam@SDK_Cable_DX9@@V?$CUtlMemory@PAVCShaderParam@SDK_Cable_DX9@@H@@@@QAE@XZ 1001cc10 f i cable_dx9.obj
 0001:0001bc10       ??1?$CUtlVector@PAVCShaderParam@SDK_EyeRefract_dx9@@V?$CUtlMemory@PAVCShaderParam@SDK_EyeRefract_dx9@@H@@@@QAE@XZ 1001cc10 f i eye_refract.obj
 0001:0001bc10       ??1?$CUtlVector@PAVCShaderParam@SDK_Eyes_dx9@@V?$CUtlMemory@PAVCShaderParam@SDK_Eyes_dx9@@H@@@@QAE@XZ 1001cc10 f i eyes_dx9.obj
 0001:0001bc10       ??1?$CUtlVector@PAVCShaderParam@SDK_Eyeball@@V?$CUtlMemory@PAVCShaderParam@SDK_Eyeball@@H@@@@QAE@XZ 1001cc10 f i eyeball.obj
 0001:0001bc10       ??1?$CUtlVector@PAVCShaderParam@SDK_screenspace_general_dx9@@V?$CUtlMemory@PAVCShaderParam@SDK_screenspace_general_dx9@@H@@@@QAE@XZ 1001cc10 f i screenspace_general.obj
 0001:0001bc10       ??1?$CUtlVector@PAVCShaderParam@SDK_VolumeClouds@@V?$CUtlMemory@PAVCShaderParam@SDK_VolumeClouds@@H@@@@QAE@XZ 1001cc10 f i dx8fallbacks.obj
 0001:0001bc10       ??1?$CUtlVector@PAVCShaderParam@SDK_eyes@@V?$CUtlMemory@PAVCShaderParam@SDK_eyes@@H@@@@QAE@XZ 1001cc10 f i eyes.obj
 0001:0001bc10       ??1?$CUtlVector@PAVCShaderParam@void_postblur@@V?$CUtlMemory@PAVCShaderParam@void_postblur@@H@@@@QAE@XZ 1001cc10 f i void_postblur.obj
 0001:0001bc10       ??1?$CUtlVector@PAVCShaderParam@SDK_UnlitTwoTexture@@V?$CUtlMemory@PAVCShaderParam@SDK_UnlitTwoTexture@@H@@@@QAE@XZ 1001cc10 f i unlittwotexture_dx9.obj
 0001:0001bc10       ??1?$CUtlVector@PAVCShaderParam@SDK_Refract@@V?$CUtlMemory@PAVCShaderParam@SDK_Refract@@H@@@@QAE@XZ 1001cc10 f i refract.obj
 0001:0001bc10       ??1?$CUtlVector@PAVCShaderParam@SDK_WorldVertexTransition_DX9@@V?$CUtlMemory@PAVCShaderParam@SDK_WorldVertexTransition_DX9@@H@@@@QAE@XZ 1001cc10 f i worldvertextransition.obj
 0001:0001bc10       ??1?$CUtlVector@PAVCShaderParam@Void_PostComposite@@V?$CUtlMemory@PAVCShaderParam@Void_PostComposite@@H@@@@QAE@XZ 1001cc10 f i void_postcomposite.obj
 0001:0001bc10       ??1?$CUtlVector@PAVCShaderParam@SDK_EyeGlint@@V?$CUtlMemory@PAVCShaderParam@SDK_EyeGlint@@H@@@@QAE@XZ 1001cc10 f i dx8fallbacks.obj
 0001:0001bc10       ??1?$CUtlVector@PAVCShaderParam@void_postgodray@@V?$CUtlMemory@PAVCShaderParam@void_postgodray@@H@@@@QAE@XZ 1001cc10 f i void_postgodray.obj
 0001:0001bc10       ??1?$CUtlVector@PAVCShaderParam@SDK_EyeRefract@@V?$CUtlMemory@PAVCShaderParam@SDK_EyeRefract@@H@@@@QAE@XZ 1001cc10 f i dx8fallbacks.obj
 0001:0001bc10       ??1?$CUtlVector@PAVCShaderParam@SDK_screenspace_general@@V?$CUtlMemory@PAVCShaderParam@SDK_screenspace_general@@H@@@@QAE@XZ 1001cc10 f i screenspace_general.obj
 0001:0001bc10       ??1?$CUtlVector@PAVCShaderParam@SDK_Teeth_DX9@@V?$CUtlMemory@PAVCShaderParam@SDK_Teeth_DX9@@H@@@@QAE@XZ 1001cc10 f i teeth.obj
 0001:0001bc10       ??1?$CUtlVector@PAVCShaderParam@SDK_LightmappedTwoTexture@@V?$CUtlMemory@PAVCShaderParam@SDK_LightmappedTwoTexture@@H@@@@QAE@XZ 1001cc10 f i lightmappedtwotexture.obj
 0001:0001bc10       ??1?$CUtlVector@PAVCShaderParam@SDK_Teeth@@V?$CUtlMemory@PAVCShaderParam@SDK_Teeth@@H@@@@QAE@XZ 1001cc10 f i teeth.obj
 0001:0001bc10       ??1?$CUtlVector@PAVCShaderParam@SDK_WorldVertexTransition@@V?$CUtlMemory@PAVCShaderParam@SDK_WorldVertexTransition@@H@@@@QAE@XZ 1001cc10 f i worldvertextransition.obj
 0001:0001bc10       ??1?$CUtlVector@PAVCShaderParam@SDK_Water@@V?$CUtlMemory@PAVCShaderParam@SDK_Water@@H@@@@QAE@XZ 1001cc10 f i water.obj
 0001:0001bc10       ??1?$CUtlVector@PAVCShaderParam@SDK_UnlitTwoTexture_DX9@@V?$CUtlMemory@PAVCShaderParam@SDK_UnlitTwoTexture_DX9@@H@@@@QAE@XZ 1001cc10 f i unlittwotexture_dx9.obj
 0001:0001bc10       ??1?$CUtlVector@PAVCShaderParam@SDK_Aftershock@@V?$CUtlMemory@PAVCShaderParam@SDK_Aftershock@@H@@@@QAE@XZ 1001cc10 f i aftershock.obj
 0001:0001bc10       ??1?$CUtlVector@PAVCShaderParam@SDK_Bloom@@V?$CUtlMemory@PAVCShaderParam@SDK_Bloom@@H@@@@QAE@XZ 1001cc10 f i Bloom.obj
 0001:0001bc10       ??1?$CUtlVector@PAVCShaderParam@SDK_Spritecard@@V?$CUtlMemory@PAVCShaderParam@SDK_Spritecard@@H@@@@QAE@XZ 1001cc10 f i spritecard.obj
 0001:0001bc80       _cosf                      1001cc80 f i mathlib:vmatrix.obj
 0001:0001bc90       ?SinCos@@YAXMPAM0@Z        1001cc90 f i mathlib:vmatrix.obj
 0001:0001bcb0       ??4VMatrix@@QAEAAV0@ABV0@@Z 1001ccb0 f   mathlib:vmatrix.obj
 0001:0001bd20       ?MatrixMul@VMatrix@@QBEXABV1@AAV1@@Z 1001cd20 f   mathlib:vmatrix.obj
 0001:0001bf90       ??DVMatrix@@QBE?AV0@ABV0@@Z 1001cf90 f   mathlib:vmatrix.obj
 0001:0001bfb0       ?MatrixTranspose@@YAXABVVMatrix@@AAV1@@Z 1001cfb0 f   mathlib:vmatrix.obj
 0001:0001c070       ?MatrixMultiply@@YAXABVVMatrix@@0AAV1@@Z 1001d070 f   mathlib:vmatrix.obj
 0001:0001c2f0       ?Transpose@VMatrix@@QBE?AV1@XZ 1001d2f0 f   mathlib:vmatrix.obj
 0001:0001c360       ?Transpose3x3@VMatrix@@QBE?AV1@XZ 1001d360 f   mathlib:vmatrix.obj
 0001:0001c3d0       ?_sqrtf@@YAMM@Z            1001d3d0 f   mathlib:mathlib_base.obj
 0001:0001c3e0       ?_rsqrtf@@YAMM@Z           1001d3e0 f   mathlib:mathlib_base.obj
 0001:0001c3f0       ?_VectorNormalize@@YIMAAVVector@@@Z 1001d3f0 f   mathlib:mathlib_base.obj
 0001:0001c430       ?_VectorNormalizeFast@@YIXAAVVector@@@Z 1001d430 f   mathlib:mathlib_base.obj
 0001:0001c470       ?_InvRSquared@@YAMPBM@Z    1001d470 f   mathlib:mathlib_base.obj
 0001:0001c4a0       ?InitSinCosTable@@YAXXZ    1001d4a0 f   mathlib:mathlib_base.obj
 0001:0001c4d0       ?MathLib_Init@@YAXMMMH_N000@Z 1001d4d0 f   mathlib:mathlib_base.obj
 0001:0001c670       ?GammaToLinear@@YAMM@Z     1001d670 f   mathlib:color_conversion.obj
 0001:0001c6c0       ?BuildGammaTable@@YAXMMMH@Z 1001d6c0 f   mathlib:color_conversion.obj
 0001:0001c980       ?_SSE_Sqrt@@YAMM@Z         1001d980 f   mathlib:sse.obj
 0001:0001c9a0       ?_SSE_RSqrtAccurate@@YAMM@Z 1001d9a0 f   mathlib:sse.obj
 0001:0001c9f0       ?_SSE_RSqrtFast@@YAMM@Z    1001d9f0 f   mathlib:sse.obj
 0001:0001ca10       ?_SSE_VectorNormalizeFast@@YIXAAVVector@@@Z 1001da10 f   mathlib:sse.obj
 0001:0001caa0       ?_SSE_InvRSquared@@YAMPBM@Z 1001daa0 f   mathlib:sse.obj
 0001:0001cae0       ?_SSE_SinCos@@YAXMPAM0@Z   1001dae0 f   mathlib:sse.obj
 0001:0001cc20       ?_SSE_cos@@YAMM@Z          1001dc20 f   mathlib:sse.obj
 0001:0001ccf0       ?_SSE2_SinCos@@YAXMPAM0@Z  1001dcf0 f   mathlib:sse.obj
 0001:0001ce10       ?_SSE2_cos@@YAMM@Z         1001de10 f   mathlib:sse.obj
 0001:0001cee0       ?_3DNow_Sqrt@@YAMM@Z       1001dee0 f   mathlib:3dnow.obj
 0001:0001cf10       ?_3DNow_RSqrt@@YAMM@Z      1001df10 f   mathlib:3dnow.obj
 0001:0001cf30       ?_3DNow_VectorNormalize@@YIMAAVVector@@@Z 1001df30 f   mathlib:3dnow.obj
 0001:0001cfb0       ?_3DNow_VectorNormalizeFast@@YIXAAVVector@@@Z 1001dfb0 f   mathlib:3dnow.obj
 0001:0001cfc0       ?_3DNow_InvRSquared@@YAMPBM@Z 1001dfc0 f   mathlib:3dnow.obj
 0001:0001d000       ?GetNumParams@CBaseShader@@UBEHXZ 1001e000 f   shaderlib:BaseShader.obj
 0001:0001d010       ?GetParamName@CBaseShader@@UBEPBDH@Z 1001e010 f   shaderlib:BaseShader.obj
 0001:0001d030       ?GetParamHelp@CBaseShader@@UBEPBDH@Z 1001e030 f   shaderlib:BaseShader.obj
 0001:0001d050       ?GetParamType@CBaseShader@@UBE?AW4ShaderParamType_t@@H@Z 1001e050 f   shaderlib:BaseShader.obj
 0001:0001d070       ?GetParamDefault@CBaseShader@@UBEPBDH@Z 1001e070 f   shaderlib:BaseShader.obj
 0001:0001d090       ?GetParamFlags@CBaseShader@@UBEHH@Z 1001e090 f   shaderlib:BaseShader.obj
 0001:0001d0b0       ?InitShaderParams@CBaseShader@@UAEXPAPAVIMaterialVar@@PBD@Z 1001e0b0 f   shaderlib:BaseShader.obj
 0001:0001d0e0       ?InitShaderInstance@CBaseShader@@UAEXPAPAVIMaterialVar@@PAVIShaderInit@@PBD2@Z 1001e0e0 f   shaderlib:BaseShader.obj
 0001:0001d130       ?SetInitialShadowState@CBaseShader@@QAEXXZ 1001e130 f   shaderlib:BaseShader.obj
 0001:0001d200       ?Draw@CBaseShader@@QAEX_N@Z 1001e200 f   shaderlib:BaseShader.obj
 0001:0001d260       ?IsUsingGraphics@CBaseShader@@QAE_NXZ 1001e260 f   shaderlib:BaseShader.obj
 0001:0001d270       ?CanUseEditorMaterials@CBaseShader@@QAE_NXZ 1001e270 f   shaderlib:BaseShader.obj
 0001:0001d280       ?LoadTexture@CBaseShader@@QAEXH@Z 1001e280 f   shaderlib:BaseShader.obj
 0001:0001d2c0       ?LoadBumpMap@CBaseShader@@QAEXH@Z 1001e2c0 f   shaderlib:BaseShader.obj
 0001:0001d300       ?LoadCubeMap@CBaseShader@@QAEXH@Z 1001e300 f   shaderlib:BaseShader.obj
 0001:0001d340       ?GetShaderAPITextureBindHandle@CBaseShader@@QAEHHHH@Z 1001e340 f   shaderlib:BaseShader.obj
 0001:0001d390       ?BindTexture@CBaseShader@@QAEXW4Sampler_t@@0HH@Z 1001e390 f   shaderlib:BaseShader.obj
 0001:0001d410       ?TextureIsTranslucent@CBaseShader@@QAE_NH_N@Z 1001e410 f   shaderlib:BaseShader.obj
 0001:0001d470       ?IsAlphaModulating@CBaseShader@@QAE_NXZ 1001e470 f   shaderlib:BaseShader.obj
 0001:0001d480       ?GetColorParameter@CBaseShader@@QBEXPAPAVIMaterialVar@@PAM@Z 1001e480 f   shaderlib:BaseShader.obj
 0001:0001d500       ?NeedsPowerOfTwoFrameBufferTexture@CBaseShader@@UBE_NPAPAVIMaterialVar@@_N@Z 1001e500 f   shaderlib:BaseShader.obj
 0001:0001d520       ?NeedsFullFrameBufferTexture@CBaseShader@@UBE_NPAPAVIMaterialVar@@_N@Z 1001e520 f   shaderlib:BaseShader.obj
 0001:0001d540       ?IsTranslucent@CBaseShader@@UBE_NPAPAVIMaterialVar@@@Z 1001e540 f   shaderlib:BaseShader.obj
 0001:0001d560       ?ApplyColor2Factor@CBaseShader@@QBEXPAM@Z 1001e560 f   shaderlib:BaseShader.obj
 0001:0001d5e0       ?ComputeModulationColor@CBaseShader@@QAEXPAM@Z 1001e5e0 f   shaderlib:BaseShader.obj
 0001:0001d690       ?EnableAlphaBlending@CBaseShader@@QAEXW4ShaderBlendFactor_t@@0@Z 1001e690 f   shaderlib:BaseShader.obj
 0001:0001d6d0       ?DisableAlphaBlending@CBaseShader@@QAEXXZ 1001e6d0 f   shaderlib:BaseShader.obj
 0001:0001d6e0       ?SetNormalBlendingShadowState@CBaseShader@@QAEXH_N@Z 1001e6e0 f   shaderlib:BaseShader.obj
 0001:0001d770       ?SetAdditiveBlendingShadowState@CBaseShader@@QAEXH_N@Z 1001e770 f   shaderlib:BaseShader.obj
 0001:0001d800       ?SetDefaultBlendingShadowState@CBaseShader@@QAEXH_N@Z 1001e800 f   shaderlib:BaseShader.obj
 0001:0001d820       ?SetBlendingShadowState@CBaseShader@@QAEXW4BlendType_t@@@Z 1001e820 f   shaderlib:BaseShader.obj
 0001:0001d880       ?SetFixedFunctionTextureScale@CBaseShader@@QAEXW4MaterialMatrixMode_t@@H@Z 1001e880 f   shaderlib:BaseShader.obj
 0001:0001d960       ?SetFixedFunctionTextureTransform@CBaseShader@@QAEXW4MaterialMatrixMode_t@@H@Z 1001e960 f   shaderlib:BaseShader.obj
 0001:0001da40       ?SetFixedFunctionTextureScaledTransform@CBaseShader@@QAEXW4MaterialMatrixMode_t@@HH@Z 1001ea40 f   shaderlib:BaseShader.obj
 0001:0001db70       ?FogToBlack@CBaseShader@@QAEXXZ 1001eb70 f   shaderlib:BaseShader.obj
 0001:0001dba0       ?FogToFogColor@CBaseShader@@QAEXXZ 1001eba0 f   shaderlib:BaseShader.obj
 0001:0001dbd0       ?DefaultFog@CBaseShader@@QAEXXZ 1001ebd0 f   shaderlib:BaseShader.obj
 0001:0001dc10       ?SetShadowEnvMappingState@CBaseShader@@QAEHHH@Z 1001ec10 f   shaderlib:BaseShader.obj
 0001:0001de00       ?UsingFlashlight@CBaseShader@@QBE_NPAPAVIMaterialVar@@@Z 1001ee00 f   shaderlib:BaseShader.obj
 0001:0001de30       ?UsingEditor@CBaseShader@@QBE_NPAPAVIMaterialVar@@@Z 1001ee30 f   shaderlib:BaseShader.obj
 0001:0001de60       ?IsHDREnabled@CBaseShader@@QAE_NXZ 1001ee60 f   shaderlib:BaseShader.obj
 0001:0001deb0       ??0CBaseShader@@QAE@XZ     1001eeb0 f   shaderlib:BaseShader.obj
 0001:0001ded0       ?DrawElements@CBaseShader@@UAEXPAPAVIMaterialVar@@HPAVIShaderShadow@@PAVIShaderDynamicAPI@@W4VertexCompressionType_t@@PAPAVCBasePerMaterialContextData@@@Z 1001eed0 f   shaderlib:BaseShader.obj
 0001:0001df70       ?BindTexture@CBaseShader@@QAEXW4Sampler_t@@HH@Z 1001ef70 f   shaderlib:BaseShader.obj
 0001:0001dfc0       ?BindTexture@CBaseShader@@QAEXW4Sampler_t@@PAVITexture@@H@Z 1001efc0 f   shaderlib:BaseShader.obj
 0001:0001dfd0       ?ComputeModulationFlags@CBaseShader@@UAEHPAPAVIMaterialVar@@PAVIShaderDynamicAPI@@@Z 1001efd0 f   shaderlib:BaseShader.obj
 0001:0001e100       ?SetColorState@CBaseShader@@QAEXH_N@Z 1001f100 f   shaderlib:BaseShader.obj
 0001:0001e290       ?FixedFunctionMultiplyByDetailPass@CBaseShader@@QAEXHHHHH@Z 1001f290 f   shaderlib:BaseShader.obj
 0001:0001e630       ?FixedFunctionMultiplyByLightmapPass@CBaseShader@@QAEXHHHM@Z 1001f630 f   shaderlib:BaseShader.obj
 0001:0001e9a0       ?FixedFunctionBaseTimesDetailPass@CBaseShader@@QAEXHHHHH@Z 1001f9a0 f   shaderlib:BaseShader.obj
 0001:0001eca0       ?SetDynamicEnvMappingState@CBaseShader@@QAEXHHHHHHHHH@Z 1001fca0 f   shaderlib:BaseShader.obj
 0001:0001edd0       ?FixedFunctionAdditiveMaskedEnvmapPass@CBaseShader@@QAEXHHHHHHHHH@Z 1001fdd0 f   shaderlib:BaseShader.obj
 0001:0001eef0       ?Connect@CShaderDLL@@UAE_NP6APAXPBDPAH@Z_N@Z 1001fef0 f   shaderlib:ShaderDLL.obj
 0001:0001ef70       ?Disconnect@CShaderDLL@@UAEX_N@Z 1001ff70 f   shaderlib:ShaderDLL.obj
 0001:0001efb0       ?Connect@CShaderDLL@@UAE_NP6APAXPBDPAH@Z@Z 1001ffb0 f   shaderlib:ShaderDLL.obj
 0001:0001efc0       ?Disconnect@CShaderDLL@@UAEXXZ 1001ffc0 f   shaderlib:ShaderDLL.obj
 0001:0001efd0       ?ShaderCount@CShaderDLL@@UBEHXZ 1001ffd0 f   shaderlib:ShaderDLL.obj
 0001:0001efe0       ?GetShader@CShaderDLL@@UAEPAVIShader@@H@Z 1001ffe0 f   shaderlib:ShaderDLL.obj
 0001:0001f000       ??0CShaderDLL@@QAE@XZ      10020000 f   shaderlib:ShaderDLL.obj
 0001:0001f060       ?GetShaderDLL@@YAPAVIShaderDLL@@XZ 10020060 f   shaderlib:ShaderDLL.obj
 0001:0001f0a0       ?GetShaderDLLInternal@@YAPAVIShaderDLLInternal@@XZ 100200a0 f   shaderlib:ShaderDLL.obj
 0001:0001f0d0       ?InsertShader@CShaderDLL@@UAEXPAVIShader@@@Z 100200d0 f   shaderlib:ShaderDLL.obj
 0001:0001f0f0       ?InitShaderLibCVars@@YAXP6APAXPBDPAH@Z@Z 100200f0 f   shaderlib:shaderlib_cvar.obj
 0001:0001f110       ?RegisterConCommandBase@CShaderLibConVarAccessor@@UAE_NPAVConCommandBase@@@Z 10020110 f i shaderlib:shaderlib_cvar.obj
 0001:0001f170       ?ConVar_Register@@YAXHPAVIConCommandBaseAccessor@@@Z 10020170 f   tier1:convar.obj
 0001:0001f1f0       ?ConVar_Unregister@@YAXXZ  100201f0 f   tier1:convar.obj
 0001:0001f230       ?IsCommand@ConCommandBase@@UBE_NXZ 10020230 f   tier1:convar.obj
 0001:0001f240       ?GetDLLIdentifier@ConCommandBase@@UBEHXZ 10020240 f   tier1:convar.obj
 0001:0001f250       ?Create@ConCommandBase@@MAEXPBD0H@Z 10020250 f   tier1:convar.obj
 0001:0001f2a0       ?GetName@ConCommandBase@@UBEPBDXZ 100202a0 f   tier1:convar.obj
 0001:0001f2b0       ?IsFlagSet@ConCommandBase@@UBE_NH@Z 100202b0 f   tier1:convar.obj
 0001:0001f2c0       ?AddFlags@ConCommandBase@@UAEXH@Z 100202c0 f   tier1:convar.obj
 0001:0001f2d0       ?GetHelpText@ConCommandBase@@UBEPBDXZ 100202d0 f   tier1:convar.obj
 0001:0001f2e0       ?IsRegistered@ConCommandBase@@UBE_NXZ 100202e0 f   tier1:convar.obj
 0001:0001f2f0       ??1ConVar@@UAE@XZ          100202f0 f   tier1:convar.obj
 0001:0001f320       ?IsFlagSet@ConVar@@UBE_NH@Z 10020320 f   tier1:convar.obj
 0001:0001f330       ?GetHelpText@ConVar@@UBEPBDXZ 10020330 f   tier1:convar.obj
 0001:0001f340       ?AddFlags@ConVar@@UAEXH@Z  10020340 f   tier1:convar.obj
 0001:0001f360       ?IsRegistered@ConVar@@UBE_NXZ 10020360 f   tier1:convar.obj
 0001:0001f370       ?GetName@ConVar@@UBEPBDXZ  10020370 f   tier1:convar.obj
 0001:0001f380       ?IsCommand@ConVar@@UBE_NXZ 10020380 f   tier1:convar.obj
 0001:0001f390       ?Init@ConVar@@EAEXXZ       10020390 f   tier1:convar.obj
 0001:0001f390       ?Init@ConCommandBase@@MAEXXZ 10020390 f   tier1:convar.obj
 0001:0001f3b0       ?InternalSetValue@ConVar@@EAEXPBD@Z 100203b0 f   tier1:convar.obj
 0001:0001f440       ?ChangeStringValue@ConVar@@EAEXPBDM@Z 10020440 f   tier1:convar.obj
 0001:0001f4f0       ?ClampValue@ConVar@@EAE_NAAM@Z 100204f0 f   tier1:convar.obj
 0001:0001f540       ?InternalSetFloatValue@ConVar@@EAEXM@Z 10020540 f   tier1:convar.obj
 0001:0001f5d0       ?InternalSetIntValue@ConVar@@EAEXH@Z 100205d0 f   tier1:convar.obj
 0001:0001f650       ?Create@ConVar@@EAEXPBD0H0_NM1MP6AXPAVIConVar@@0M@Z@Z 10020650 f   tier1:convar.obj
 0001:0001f730       ?SetValue@ConVar@@UAEXPBD@Z 10020730 f   tier1:convar.obj
 0001:0001f740       ?SetValue@ConVar@@UAEXM@Z  10020740 f   tier1:convar.obj
 0001:0001f760       ?SetValue@ConVar@@UAEXH@Z  10020760 f   tier1:convar.obj
 0001:0001f770       ?GetName@ConVar@@WBI@BEPBDXZ 10020770 f i tier1:convar.obj
 0001:0001f780       ?IsFlagSet@ConVar@@WBI@BE_NH@Z 10020780 f i tier1:convar.obj
 0001:0001f790       ?RegisterConCommandBase@CDefaultAccessor@@UAE_NPAVConCommandBase@@@Z 10020790 f i tier1:convar.obj
 0001:0001f7b0       ??_EConCommandBase@@UAEPAXI@Z 100207b0 f i tier1:convar.obj
 0001:0001f7b0       ??_GConCommandBase@@UAEPAXI@Z 100207b0 f i tier1:convar.obj
 0001:0001f7d0       ??0ConVar@@QAE@PBD0H@Z     100207d0 f   tier1:convar.obj
 0001:0001f830       ??_GCEmptyConVar@@UAEPAXI@Z 10020830 f i tier1:convar.obj
 0001:0001f830       ??_ECEmptyConVar@@UAEPAXI@Z 10020830 f i tier1:convar.obj
 0001:0001f830       ??_GConVar@@UAEPAXI@Z      10020830 f i tier1:convar.obj
 0001:0001f830       ??_EConVar@@UAEPAXI@Z      10020830 f i tier1:convar.obj
 0001:0001f880       ?SetValue@CEmptyConVar@@UAEXM@Z 10020880 f i tier1:convar.obj
 0001:0001f880       ?SetValue@CEmptyConVar@@UAEXPBD@Z 10020880 f i tier1:convar.obj
 0001:0001f880       ?SetValue@CEmptyConVar@@UAEXH@Z 10020880 f i tier1:convar.obj
 0001:0001f890       ?GetName@CEmptyConVar@@UBEPBDXZ 10020890 f i tier1:convar.obj
 0001:0001f8a0       ?IsFlagSet@CEmptyConVar@@UBE_NH@Z 100208a0 f i tier1:convar.obj
 0001:0001f8b0       ?IsFlagSet@CEmptyConVar@@WBI@BE_NH@Z 100208b0 f i tier1:convar.obj
 0001:0001f8c0       ?GetName@CEmptyConVar@@WBI@BEPBDXZ 100208c0 f i tier1:convar.obj
 0001:0001f8d0       ?V_snprintf@@YAHPADHPBDZZ  100208d0 f   tier1:strtools.obj
 0001:0001f920       ?ConnectTier1Libraries@@YAXPAP6APAXPBDPAH@ZH@Z 10020920 f   tier1:tier1.obj
 0001:0001f990       ?DisconnectTier1Libraries@@YAXXZ 10020990 f   tier1:tier1.obj
 0001:0001f9b0       ??0InterfaceReg@@QAE@P6APAXXZPBD@Z 100209b0 f   tier1:interface.obj
 0001:0001f9d0       _CreateInterface           100209d0 f   tier1:interface.obj
 0001:0001fa40       ?FindConversion@CUtlCStringConversion@@UAEDPBDPAH@Z 10020a40 f   tier1:utlbuffer.obj
 0001:0001fa60       ??0CUtlCharConversion@@QAE@DPBDHPAUConversionArray_t@0@@Z 10020a60 f   tier1:utlbuffer.obj
 0001:0001fb10       ?FindConversion@CUtlCharConversion@@UAEDPBDPAH@Z 10020b10 f   tier1:utlbuffer.obj
 0001:0001fb90       ?FindConversion@CUtlNoEscConversion@@UAEDPBDPAH@Z 10020b90 f i tier1:utlbuffer.obj
 0001:0001fb9f       __initp_misc_winxfltr      10020b9f f   LIBCMT:winxfltr.obj
 0001:0001fb9f       __fpclear                  10020b9f f   LIBCMT:_fpinit_.obj
 0001:0001fba0       __cfltcvt_init             10020ba0 f   LIBCMT:_fpinit_.obj
 0001:0001fc00       __fpmath                   10020c00 f   LIBCMT:_fpinit_.obj
 0001:0001fc30       _memmove                   10020c30 f   LIBCMT:memmove.obj
 0001:0001ff95       ??1type_info@@UAE@XZ       10020f95 f   LIBCMT:typinfo.obj
 0001:0001ffa5       ??_Etype_info@@UAEPAXI@Z   10020fa5 f i LIBCMT:typinfo.obj
 0001:0001ffa5       ??_Gtype_info@@UAEPAXI@Z   10020fa5 f i LIBCMT:typinfo.obj
 0001:0001ffc6       __purecall                 10020fc6 f   LIBCMT:purevirt.obj
 0001:0001fff0       _memset                    10020ff0 f   LIBCMT:memset.obj
 0001:00020124       ___onexitinit              10021124 f   LIBCMT:onexit.obj
 0001:00020155       __onexit                   10021155 f   LIBCMT:onexit.obj
 0001:00020191       _atexit                    10021191 f   LIBCMT:onexit.obj
 0001:000201b0       __ftol2_sse                100211b0 f   LIBCMT:ftol2.obj
 0001:000201b9       __ftol2_pentium4           100211b9 f   LIBCMT:ftol2.obj
 0001:000201cc       __ftol2_sse_excpt          100211cc f   LIBCMT:ftol2.obj
 0001:000201e6       __ftol2                    100211e6 f   LIBCMT:ftol2.obj
 0001:00020260       _fmod                      10021260 f   LIBCMT:_87fmod_.obj
 0001:0002026a       __CIfmod                   1002126a f   LIBCMT:_87fmod_.obj
 0001:00020292       ??3@YAXPAX@Z               10021292 f   LIBCMT:delete.obj
 0001:000202a0       _memcpy                    100212a0 f   LIBCMT:memcpy.obj
 0001:00020605       ??0bad_alloc@std@@QAE@XZ   10021605 f i LIBCMT:new.obj
 0001:00020620       ??1bad_alloc@std@@UAE@XZ   10021620 f i LIBCMT:new.obj
 0001:0002062b       ??_Gbad_alloc@std@@UAEPAXI@Z 1002162b f i LIBCMT:new.obj
 0001:0002062b       ??_Ebad_alloc@std@@UAEPAXI@Z 1002162b f i LIBCMT:new.obj
 0001:00020652       ??0bad_alloc@std@@QAE@ABV01@@Z 10021652 f i LIBCMT:new.obj
 0001:0002066f       ??2@YAPAXI@Z               1002166f f   LIBCMT:new.obj
 0001:000206e0       __alloca_probe             100216e0     LIBCMT:chkstk.obj
 0001:000206e0       __chkstk                   100216e0 f   LIBCMT:chkstk.obj
 0001:00020710       __alloca_probe_16          10021710 f   LIBCMT:alloca16.obj
 0001:00020726       __alloca_probe_8           10021726     LIBCMT:alloca16.obj
 0001:0002073c       __CRT_INIT@12              1002173c f   LIBCMT:dllcrt0.obj
 0001:00020967       __DllMainCRTStartup@12     10021967 f   LIBCMT:dllcrt0.obj
 0001:00020990       _acos                      10021990 f   LIBCMT:_acos_.obj
 0001:000209d0       __CIacos                   100219d0 f   LIBCMT:_acos_.obj
 0001:00020a0b       __CIacos_default           10021a0b f   LIBCMT:_acos_.obj
 0001:00020a1f       __acos_default             10021a1f     LIBCMT:_acos_.obj
 0001:00020ae0       _asin                      10021ae0 f   LIBCMT:_asin_.obj
 0001:00020b20       __CIasin                   10021b20 f   LIBCMT:_asin_.obj
 0001:00020b5b       __CIasin_default           10021b5b f   LIBCMT:_asin_.obj
 0001:00020b6f       __asin_default             10021b6f     LIBCMT:_asin_.obj
 0001:00020c30       _pow                       10021c30 f   LIBCMT:_pow_.obj
 0001:00020c70       __CIpow                    10021c70 f   LIBCMT:_pow_.obj
 0001:00020cab       __CIpow_default            10021cab f   LIBCMT:_pow_.obj
 0001:00020cc4       __pow_default              10021cc4     LIBCMT:_pow_.obj
 0001:00020ec0       _floor                     10021ec0 f   LIBCMT:_floor_pentium4_.obj
 0001:00020f00       __floor_pentium4           10021f00 f   LIBCMT:_floor_pentium4_.obj
 0001:00020fe1       _atol                      10021fe1 f   LIBCMT:atox.obj
 0001:00020ff7       ??0_LocaleUpdate@@QAE@PAUlocaleinfo_struct@@@Z 10021ff7 f i LIBCMT:atof.obj
 0001:0002107e       __atof_l                   1002207e f   LIBCMT:atof.obj
 0001:00021129       _atof                      10022129 f   LIBCMT:atof.obj
 0001:00021150       _strchr                    10022150 f   LIBCMT:strchr.obj
 0001:00021156       ___from_strstr_to_strchr   10022156     LIBCMT:strchr.obj
 0001:00021210       _strstr                    10022210 f   LIBCMT:strstr.obj
 0001:00021296       __tolower_l                10022296 f   LIBCMT:tolower.obj
 0001:000213ab       _tolower                   100223ab f   LIBCMT:tolower.obj
 0001:000213e0       _strncat                   100223e0 f   LIBCMT:strncat.obj
 0001:00021520       _strncpy                   10022520 f   LIBCMT:strncpy.obj
 0001:00021644       __vsnprintf_l              10022644 f   LIBCMT:vsnprint.obj
 0001:000216f7       __vsnprintf                100226f7 f   LIBCMT:vsnprint.obj
 0001:00021720       __allrem                   10022720 f   LIBCMT:llrem.obj
 0001:000217e0       __alldiv                   100227e0 f   LIBCMT:lldiv.obj
 0001:0002188a       __isdigit_l                1002288a f i LIBCMT:_ctype.obj
 0001:000218db       _isdigit                   100228db f i LIBCMT:_ctype.obj
 0001:00021b38       _strtol                    10022b38 f   LIBCMT:strtol.obj
 0001:00021b63       __forcdecpt_l              10022b63 f   LIBCMT:cvt.obj
 0001:00021bd6       __cropzeros_l              10022bd6 f   LIBCMT:cvt.obj
 0001:00021c58       __positive                 10022c58 f   LIBCMT:cvt.obj
 0001:00021c74       __fassign_l                10022c74 f   LIBCMT:cvt.obj
 0001:00021cb6       __fassign                  10022cb6 f   LIBCMT:cvt.obj
 0001:00021cef       __forcdecpt                10022cef f   LIBCMT:cvt.obj
 0001:00021d02       __cropzeros                10022d02 f   LIBCMT:cvt.obj
 0001:00021e84       __cftoe_l                  10022e84 f   LIBCMT:cvt.obj
 0001:00021f54       __cftoe                    10022f54 f   LIBCMT:cvt.obj
 0001:00021f74       __cftoa_l                  10022f74 f   LIBCMT:cvt.obj
 0001:000223de       __cftof_l                  100233de f   LIBCMT:cvt.obj
 0001:00022499       __cftog_l                  10023499 f   LIBCMT:cvt.obj
 0001:00022593       __cfltcvt_l                10023593 f   LIBCMT:cvt.obj
 0001:0002261b       __cfltcvt                  1002361b f   LIBCMT:cvt.obj
 0001:0002263e       __initp_misc_cfltcvt_tab   1002363e f   LIBCMT:cmiscdat.obj
 0001:0002265f       __setdefaultprecision      1002365f f   LIBCMT:fp8.obj
 0001:0002268a       __ms_p5_test_fdiv          1002368a f   LIBCMT:_testfdiv_.obj
 0001:000226c8       __ms_p5_mp_test_fdiv       100236c8 f   LIBCMT:_testfdiv_.obj
 0001:00022778       __VEC_memcpy               10023778 f   LIBCMT:p4_memcpy.obj
 0001:000228ab       __get_sse2_info            100238ab f   LIBCMT:cpu_disp.obj
 0001:0002290d       ___sse2_available_init     1002390d f   LIBCMT:cpu_disp.obj
 0001:0002291a       ?_Type_info_dtor@type_info@@CAXPAV1@@Z 1002391a f   LIBCMT:typname.obj
 0001:00022990       _strcmp                    10023990 f   LIBCMT:strcmp.obj
 0001:00022a18       _abort                     10023a18 f   LIBCMT:abort.obj
 0001:00022b2f       __set_abort_behavior       10023b2f f   LIBCMT:abort.obj
 0001:00022b50       __NMSG_WRITE               10023b50 f   LIBCMT:crt0msg.obj
 0001:00022cfb       __FF_MSGBANNER             10023cfb f   LIBCMT:crt0msg.obj
 0001:00022d34       __encode_pointer           10023d34 f   LIBCMT:tidtable.obj
 0001:00022da6       __encoded_null             10023da6 f   LIBCMT:tidtable.obj
 0001:00022daf       __decode_pointer           10023daf f   LIBCMT:tidtable.obj
 0001:00022e21       ___crtTlsAlloc@4           10023e21 f   LIBCMT:tidtable.obj
 0001:00022e2a       ___set_flsgetvalue         10023e2a f   LIBCMT:tidtable.obj
 0001:00022e5e       __mtterm                   10023e5e f   LIBCMT:tidtable.obj
 0001:00022e9b       __initptd                  10023e9b f   LIBCMT:tidtable.obj
 0001:00022f82       __getptd_noexit            10023f82 f   LIBCMT:tidtable.obj
 0001:00022ffb       __getptd                   10023ffb f   LIBCMT:tidtable.obj
 0001:00023015       __freefls@4                10024015 f   LIBCMT:tidtable.obj
 0001:00023144       __freeptd                  10024144 f   LIBCMT:tidtable.obj
 0001:000231b2       __mtinit                   100241b2 f   LIBCMT:tidtable.obj
 0001:0002333f       __initp_misc_purevirt      1002433f f   LIBCMT:inithelp.obj
 0001:000233a5       __VEC_memzero              100243a5 f   LIBCMT:p4_memset.obj
 0001:00023434       __malloc_crt               10024434 f   LIBCMT:crtheap.obj
 0001:00023479       __calloc_crt               10024479 f   LIBCMT:crtheap.obj
 0001:000234c5       __realloc_crt              100244c5 f   LIBCMT:crtheap.obj
 0001:00023513       __msize                    10024513 f   LIBCMT:msize.obj
 0001:000235b6       __crt_waiting_on_module_handle 100245b6 f   LIBCMT:crt0dat.obj
 0001:000235e6       __amsg_exit                100245e6 f   LIBCMT:crt0dat.obj
 0001:0002360f       ___crtCorExitProcess       1002460f f   LIBCMT:crt0dat.obj
 0001:0002363a       ___crtExitProcess          1002463a f   LIBCMT:crt0dat.obj
 0001:00023652       __lockexit                 10024652 f   LIBCMT:crt0dat.obj
 0001:0002365b       __unlockexit               1002465b f   LIBCMT:crt0dat.obj
 0001:00023681       __initterm_e               10024681 f   LIBCMT:crt0dat.obj
 0001:000236a5       __cinit                    100246a5 f   LIBCMT:crt0dat.obj
 0001:00023856       __exit                     10024856 f   LIBCMT:crt0dat.obj
 0001:0002386c       __cexit                    1002486c f   LIBCMT:crt0dat.obj
 0001:0002387b       __init_pointers            1002487b f   LIBCMT:crt0dat.obj
 0001:000238cc       __SEH_prolog4              100248cc f   LIBCMT:sehprolg4.obj
 0001:00023911       __SEH_epilog4              10024911 f   LIBCMT:sehprolg4.obj
 0001:00023930       __except_handler4          10024930 f   LIBCMT:chandler4.obj
 0001:00023ac0       __cintrindisp2             10024ac0 f   LIBCMT:_87cdisp_.obj
 0001:00023afe       __cintrindisp1             10024afe f   LIBCMT:_87cdisp_.obj
 0001:00023b3b       __ctrandisp2               10024b3b f   LIBCMT:_87cdisp_.obj
 0001:00023cd1       __ctrandisp1               10024cd1 f   LIBCMT:_87cdisp_.obj
 0001:00023d04       __fload                    10024d04 f   LIBCMT:_87cdisp_.obj
 0001:00023d40       __trandisp1                10024d40 f   LIBCMT:_87disp_.obj
 0001:00023da7       __trandisp2                10024da7 f   LIBCMT:_87disp_.obj
 0001:00023e33       __rttospopde               10024e33     LIBCMT:_87disp_.obj
 0001:00023e38       __rttospop                 10024e38     LIBCMT:_87disp_.obj
 0001:00023e3a       __rtnospop                 10024e3a     LIBCMT:_87disp_.obj
 0001:00023e3c       __rttosnpop                10024e3c     LIBCMT:_87disp_.obj
 0001:00023e3d       __rtnospopde               10024e3d     LIBCMT:_87disp_.obj
 0001:00023e44       __rtzeropop                10024e44     LIBCMT:_87disp_.obj
 0001:00023e46       __rtzeronpop               10024e46     LIBCMT:_87disp_.obj
 0001:00023e4b       __rtonepop                 10024e4b     LIBCMT:_87disp_.obj
 0001:00023e4d       __rtonenpop                10024e4d     LIBCMT:_87disp_.obj
 0001:00023e52       __tosnan1                  10024e52     LIBCMT:_87disp_.obj
 0001:00023e7d       __nosnan2                  10024e7d     LIBCMT:_87disp_.obj
 0001:00023e7f       __tosnan2                  10024e7f     LIBCMT:_87disp_.obj
 0001:00023ea7       __nan2                     10024ea7     LIBCMT:_87disp_.obj
 0001:00023ee6       __rtindfpop                10024ee6     LIBCMT:_87disp_.obj
 0001:00023ee8       __rtindfnpop               10024ee8     LIBCMT:_87disp_.obj
 0001:00023ef9       __rttosnpopde              10024ef9     LIBCMT:_87disp_.obj
 0001:00023f03       __rtchsifneg               10024f03     LIBCMT:_87disp_.obj
 0001:00023f10       _fdiv_main_routine         10024f10 f   LIBCMT:_adj_fdiv_.obj
 0001:00024027       __adj_fdiv_r               10025027 f   LIBCMT:_adj_fdiv_.obj
 0001:000244c6       __fdivp_sti_st             100254c6 f   LIBCMT:_adj_fdiv_.obj
 0001:000244d9       __fdivrp_sti_st            100254d9 f   LIBCMT:_adj_fdiv_.obj
 0001:000244ec       __adj_fdiv_m32             100254ec f   LIBCMT:_adj_fdiv_.obj
 0001:00024538       __adj_fdiv_m64             10025538 f   LIBCMT:_adj_fdiv_.obj
 0001:00024584       __adj_fdiv_m16i            10025584 f   LIBCMT:_adj_fdiv_.obj
 0001:000245b8       __adj_fdiv_m32i            100255b8 f   LIBCMT:_adj_fdiv_.obj
 0001:000245ec       __adj_fdivr_m32            100255ec f   LIBCMT:_adj_fdiv_.obj
 0001:00024638       __adj_fdivr_m64            10025638 f   LIBCMT:_adj_fdiv_.obj
 0001:00024684       __adj_fdivr_m16i           10025684 f   LIBCMT:_adj_fdiv_.obj
 0001:000246b8       __adj_fdivr_m32i           100256b8 f   LIBCMT:_adj_fdiv_.obj
 0001:000246ec       __safe_fdiv                100256ec f   LIBCMT:_adj_fdiv_.obj
 0001:00024701       __safe_fdivr               10025701 f   LIBCMT:_adj_fdiv_.obj
 0001:00024716       __fprem_common             10025716 f   LIBCMT:_adj_fdiv_.obj
 0001:0002491c       __adj_fprem                1002591c f   LIBCMT:_adj_fdiv_.obj
 0001:000249ce       __fprem1_common            100259ce f   LIBCMT:_adj_fdiv_.obj
 0001:00024bd4       __adj_fprem1               10025bd4 f   LIBCMT:_adj_fdiv_.obj
 0001:00024c89       __safe_fprem               10025c89 f   LIBCMT:_adj_fdiv_.obj
 0001:00024c8f       __safe_fprem1              10025c8f f   LIBCMT:_adj_fdiv_.obj
 0001:00024c95       __adj_fpatan               10025c95 f   LIBCMT:_adj_fdiv_.obj
 0001:00024c98       __adj_fptan                10025c98 f   LIBCMT:_adj_fdiv_.obj
 0001:00024c9b       _free                      10025c9b f   LIBCMT:free.obj
 0001:00024d29       ??0exception@std@@QAE@ABQBDH@Z 10025d29 f   LIBCMT:stdexcpt.obj
 0001:00024d46       ??0exception@std@@QAE@ABV01@@Z 10025d46 f   LIBCMT:stdexcpt.obj
 0001:00024da3       ??1exception@std@@UAE@XZ   10025da3 f   LIBCMT:stdexcpt.obj
 0001:00024db9       ?what@exception@std@@UBEPBDXZ 10025db9 f   LIBCMT:stdexcpt.obj
 0001:00024dc6       ??_Eexception@std@@UAEPAXI@Z 10025dc6 f i LIBCMT:stdexcpt.obj
 0001:00024dc6       ??_Gexception@std@@UAEPAXI@Z 10025dc6 f i LIBCMT:stdexcpt.obj
 0001:00024de7       _V6_HeapAlloc              10025de7 f   LIBCMT:malloc.obj
 0001:00024e36       _malloc                    10025e36 f   LIBCMT:malloc.obj
 0001:00024f00       __initp_heap_handler       10025f00 f   LIBCMT:handler.obj
 0001:00024f0f       __callnewh                 10025f0f f   LIBCMT:handler.obj
 0001:00024f37       __CxxThrowException@8      10025f37 f   LIBCMT:throw.obj
 0001:00024f83       __ioinit                   10025f83 f   LIBCMT:ioinit.obj
 0001:000251d7       __ioterm                   100261d7 f   LIBCMT:ioinit.obj
 0001:00025225       __setenvp                  10026225 f   LIBCMT:stdenvp.obj
 0001:0002549d       __setargv                  1002649d f   LIBCMT:stdargv.obj
 0001:00025558       ___crtGetEnvironmentStringsA 10026558 f   LIBCMT:a_env.obj
 0001:0002568f       __RTC_Initialize           1002668f f   LIBCMT:_initsect_.obj
 0001:000256b5       __RTC_Terminate            100266b5 f   LIBCMT:_initsect_.obj
 0001:000256db       __heap_init                100266db f   LIBCMT:heapinit.obj
 0001:0002570b       __heap_term                1002670b f   LIBCMT:heapinit.obj
 0001:0002577f       __XcptFilter               1002677f f   LIBCMT:winxfltr.obj
 0001:000258df       ___CppXcptFilter           100268df f   LIBCMT:winxfltr.obj
 0001:000258ff       ___security_init_cookie    100268ff f   LIBCMT:gs_support.obj
 0001:00025995       __sse2_mathfcns_init       10026995 f   LIBCMT:_mathfcns_.obj
 0001:000259b0       __CIacos_pentium4          100269b0 f   LIBCMT:_acos_pentium4_.obj
 0001:000259c8       __acos_pentium4            100269c8     LIBCMT:_acos_pentium4_.obj
 0001:00025f10       __startTwoArgErrorHandling 10026f10 f   LIBCMT:_genexcep_.obj
 0001:00025f27       __startOneArgErrorHandling 10026f27 f   LIBCMT:_genexcep_.obj
 0001:00025f70       __twoToTOS                 10026f70 f   LIBCMT:_common_.obj
 0001:00025f85       __load_CW                  10026f85 f   LIBCMT:_common_.obj
 0001:00025f9c       __convertTOStoQNaN         10026f9c f   LIBCMT:_common_.obj
 0001:00025fb5       __fload_withFB             10026fb5 f   LIBCMT:_common_.obj
 0001:00025ff8       __checkTOS_withFB          10026ff8 f   LIBCMT:_common_.obj
 0001:0002600e       __fast_exit                1002700e f   LIBCMT:_common_.obj
 0001:0002601b       __math_exit                1002701b f   LIBCMT:_common_.obj
 0001:00026045       __check_overflow_exit      10027045 f   LIBCMT:_common_.obj
 0001:00026059       __check_range_exit         10027059 f   LIBCMT:_common_.obj
 0001:00026100       __CIasin_pentium4          10027100 f   LIBCMT:_asin_pentium4_.obj
 0001:00026118       __asin_pentium4            10027118     LIBCMT:_asin_pentium4_.obj
 0001:00026680       __CIpow_pentium4           10027680 f   LIBCMT:_pow_pentium4_.obj
 0001:00026699       __pow_pentium4             10027699     LIBCMT:_pow_pentium4_.obj
 0001:000271f1       __fFEXP                    100281f1     LIBCMT:_87tran_.obj
 0001:00027258       __rtinfpopse               10028258     LIBCMT:_87tran_.obj
 0001:0002725a       __rtinfnpopse              1002825a     LIBCMT:_87tran_.obj
 0001:0002726a       __fFLN                     1002826a     LIBCMT:_87tran_.obj
 0001:0002731f       __rtinfpop                 1002831f     LIBCMT:_87tran_.obj
 0001:00027321       __rtinfnpop                10028321     LIBCMT:_87tran_.obj
 0001:0002733e       __ffexpm1                  1002833e     LIBCMT:_87tran_.obj
 0001:000273e7       __d_inttype                100283e7 f   LIBCMT:_powhlp_.obj
 0001:0002744d       __powhlp                   1002844d f   LIBCMT:_powhlp_.obj
 0001:0002758d       ___libm_error_support      1002858d f   LIBCMT:_libm_error_.obj
 0001:0002783d       __floor_default            1002883d f   LIBCMT:_floor_.obj
 0001:00027b38       ___updatetmbcinfo          10028b38 f   LIBCMT:mbctype.obj
 0001:00027c58       __setmbcp_nolock           10028c58 f   LIBCMT:mbctype.obj
 0001:00027e3d       __setmbcp                  10028e3d f   LIBCMT:mbctype.obj
 0001:00027fd7       ___initmbctable            10028fd7 f   LIBCMT:mbctype.obj
 0001:00027ff5       ___freetlocinfo            10028ff5 f   LIBCMT:setlocal.obj
 0001:0002813e       ___addlocaleref            1002913e f   LIBCMT:setlocal.obj
 0001:000281cd       ___removelocaleref         100291cd f   LIBCMT:setlocal.obj
 0001:000282a4       ___updatetlocinfo          100292a4 f   LIBCMT:setlocal.obj
 0001:0002831a       __fltin2                   1002931a f   LIBCMT:_cfin_.obj
 0001:000283d0       _strlen                    100293d0 f   LIBCMT:strlen.obj
 0001:0002845b       __isctype_l                1002945b f   LIBCMT:isctype.obj
 0001:00028513       __initp_misc_invarg        10029513 f   LIBCMT:invarg.obj
 0001:00028522       __invoke_watson            10029522 f   LIBCMT:invarg.obj
 0001:0002864a       __invalid_parameter        1002964a f   LIBCMT:invarg.obj
 0001:00028670       __get_errno_from_oserr     10029670 f   LIBCMT:dosmap.obj
 0001:000286b2       __errno                    100296b2 f   LIBCMT:dosmap.obj
 0001:000286c5       ___doserrno                100296c5 f   LIBCMT:dosmap.obj
 0001:000286d8       __dosmaperr                100296d8 f   LIBCMT:dosmap.obj
 0001:000286fb       ___strgtold12_l            100296fb f   LIBCMT:_strgtold_.obj
 0001:00028df3       __freea                    10029df3 f i LIBCMT:a_map.obj
 0001:000291b8       ___crtLCMapStringA         1002a1b8 f   LIBCMT:a_map.obj
 0001:000291fd       __isleadbyte_l             1002a1fd f i LIBCMT:_wctype.obj
 0001:00029235       _isleadbyte                1002a235 f i LIBCMT:_wctype.obj
 0001:00029248       __mtinitlocks              1002a248 f   LIBCMT:mlock.obj
 0001:00029293       __mtdeletelocks            1002a293 f   LIBCMT:mlock.obj
 0001:000292ea       __unlock                   1002a2ea f   LIBCMT:mlock.obj
 0001:00029301       __mtinitlocknum            1002a301 f   LIBCMT:mlock.obj
 0001:000293c4       __lock                     1002a3c4 f   LIBCMT:mlock.obj
 0001:000293f7       @__security_check_cookie@4 1002a3f7 f   LIBCMT:secchk.obj
 0001:00029406       __flsbuf                   1002a406 f   LIBCMT:_flsbuf.obj
 0001:00029610       __output_l                 1002a610 f   LIBCMT:output.obj
 0001:0002a1b0       _strrchr                   1002b1b0 f   LIBCMT:strrchr.obj
 0001:0002a1dd       __atodbl_l                 1002b1dd f   LIBCMT:atodbl.obj
 0001:0002a285       __atoflt_l                 1002b285 f   LIBCMT:atodbl.obj
 0001:0002a32d       _strcpy_s                  1002b32d f   LIBCMT:strcpy_s.obj
 0001:0002a395       __fptostr                  1002b395 f   LIBCMT:_fptostr.obj
 0001:0002a454       ___dtold                   1002b454 f   LIBCMT:_cfout_.obj
 0001:0002a511       __fltout2                  1002b511 f   LIBCMT:_cfout_.obj
 0001:0002a5b0       __alldvrm                  1002b5b0 f   LIBCMT:lldvrm.obj
 0001:0002a690       __aullshr                  1002b690 f   LIBCMT:ullshr.obj
 0001:0002a6af       __fptrap                   1002b6af f   LIBCMT:crt0fp.obj
 0001:0002a6b8       __controlfp_s              1002b6b8 f   LIBCMT:_contrlfp_.obj
 0001:0002a724       __local_unwind4            1002b724 f   LIBCMT:exsup4.obj
 0001:0002a7fa       __seh_longjmp_unwind4@4    1002b7fa f   LIBCMT:exsup4.obj
 0001:0002a816       @_EH4_CallFilterFunc@8     1002b816 f   LIBCMT:exsup4.obj
 0001:0002a82d       @_EH4_TransferToHandler@8  1002b82d f   LIBCMT:exsup4.obj
 0001:0002a846       @_EH4_GlobalUnwind@4       1002b846 f   LIBCMT:exsup4.obj
 0001:0002a860       @_EH4_LocalUnwind@16       1002b860 f   LIBCMT:exsup4.obj
 0001:0002a877       __initp_misc_winsig        1002b877 f   LIBCMT:winsig.obj
 0001:0002a8cc       ___get_sigabrt             1002b8cc f   LIBCMT:winsig.obj
 0001:0002a8d9       _raise                     1002b8d9 f   LIBCMT:winsig.obj
 0001:0002aa89       ___crtMessageBoxA          1002ba89 f   LIBCMT:crtmbox.obj
 0001:0002abf2       _strcat_s                  1002bbf2 f   LIBCMT:strcat_s.obj
 0001:0002ac66       _strncpy_s                 1002bc66 f   LIBCMT:strncpy_s.obj
 0001:0002ad1b       __set_error_mode           1002bd1b f   LIBCMT:errmode.obj
 0001:0002ad66       __calloc_impl              1002bd66 f   LIBCMT:calloc_impl.obj
 0001:0002ae84       _realloc                   1002be84 f   LIBCMT:realloc.obj
 0001:0002b09f       ___sbh_find_block          1002c09f f   LIBCMT:sbheap.obj
 0001:0002b0cf       ___sbh_free_block          1002c0cf f   LIBCMT:sbheap.obj
 0001:0002b3e5       ___sbh_alloc_new_region    1002c3e5 f   LIBCMT:sbheap.obj
 0001:0002b495       ___sbh_alloc_new_group     1002c495 f   LIBCMT:sbheap.obj
 0001:0002b59d       ___sbh_resize_block        1002c59d f   LIBCMT:sbheap.obj
 0001:0002b87e       ___sbh_alloc_block         1002c87e f   LIBCMT:sbheap.obj
 0001:0002bb70       __ValidateImageBase        1002cb70 f   LIBCMT:pesect.obj
 0001:0002bbb0       __FindPESection            1002cbb0 f   LIBCMT:pesect.obj
 0001:0002bc00       __IsNonwritableInCurrentImage 1002cc00 f   LIBCMT:pesect.obj
 0001:0002bcbd       ?terminate@@YAXXZ          1002ccbd f   LIBCMT:hooks.obj
 0001:0002bcf6       __initp_eh_hooks           1002ccf6 f   LIBCMT:hooks.obj
 0001:0002bd07       __initp_misc_rand_s        1002cd07 f   LIBCMT:rand_s.obj
 0001:0002bd16       __initp_misc_initcrit      1002cd16 f   LIBCMT:initcrit.obj
 0001:0002bd25       ___crtInitCritSecAndSpinCount 1002cd25 f   LIBCMT:initcrit.obj
 0001:0002bd85       __87except                 1002cd85 f   LIBCMT:_87except_.obj
 0001:0002bf17       __ismbblead                1002cf17 f   LIBCMT:ismbbyte.obj
 0001:0002bf2f       __frnd                     1002cf2f f   LIBCMT:_frnd_.obj
 0001:0002bf43       __fpclass                  1002cf43 f   LIBCMT:_ieeemisc_.obj
 0001:0002bfd7       __set_exp                  1002cfd7 f   LIBCMT:_util_.obj
 0001:0002c003       __sptype                   1002d003 f   LIBCMT:_util_.obj
 0001:0002c063       __decomp                   1002d063 f   LIBCMT:_util_.obj
 0001:0002c11c       __matherr                  1002d11c f   LIBCMT:_matherr_.obj
 0001:0002c11f       __raise_exc_ex             1002d11f f   LIBCMT:_fpexcept_.obj
 0001:0002c3fb       __raise_exc                1002d3fb f   LIBCMT:_fpexcept_.obj
 0001:0002c41e       __handle_exc               1002d41e f   LIBCMT:_fpexcept_.obj
 0001:0002c600       __set_errno_from_matherr   1002d600 f   LIBCMT:_fpexcept_.obj
 0001:0002c62d       __errcode                  1002d62d f   LIBCMT:_fpexcept_.obj
 0001:0002c661       __umatherr                 1002d661 f   LIBCMT:_fpexcept_.obj
 0001:0002c701       __handle_qnan1             1002d701 f   LIBCMT:_fpexcept_.obj
 0001:0002c756       __except1                  1002d756 f   LIBCMT:_fpexcept_.obj
 0001:0002c81f       __statfp                   1002d81f f   LIBCMT:_fpctrl_.obj
 0001:0002c82f       __clrfp                    1002d82f f   LIBCMT:_fpctrl_.obj
 0001:0002c840       __ctrlfp                   1002d840 f   LIBCMT:_fpctrl_.obj
 0001:0002c869       __set_statfp               1002d869 f   LIBCMT:_fpctrl_.obj
 0001:0002c8c1       ___set_fpsr_sse2           1002d8c1 f   LIBCMT:_fpctrl_.obj
 0001:0002c940       __allmul                   1002d940 f   LIBCMT:llmul.obj
 0001:0002c980       __aulldvrm                 1002d980 f   LIBCMT:ulldvrm.obj
 0001:0002cbcf       ___crtGetStringTypeA       1002dbcf f   LIBCMT:a_str.obj
 0001:0002cc11       ___free_lc_time            1002dc11 f   LIBCMT:inittime.obj
 0001:0002cda6       ___free_lconv_num          1002dda6 f   LIBCMT:initnum.obj
 0001:0002cdeb       ___free_lconv_mon          1002ddeb f   LIBCMT:initmon.obj
 0001:0002ce80       _strcspn                   1002de80 f   LIBCMT:strcspn.obj
 0001:0002ced0       _strpbrk                   1002ded0 f   LIBCMT:strpbrk.obj
 0001:0002cf10       __ld12tod                  1002df10 f   LIBCMT:_intrncvt_.obj
 0001:0002d454       __ld12tof                  1002e454 f   LIBCMT:_intrncvt_.obj
 0001:0002d998       __crt_debugger_hook        1002e998 f   LIBCMT:dbghook.obj
 0001:0002d9a0       ___mtold12                 1002e9a0 f   LIBCMT:_mantold_.obj
 0001:0002db6e       ___ansicp                  1002eb6e f   LIBCMT:convrtcp.obj
 0001:0002dbb7       ___convertcp               1002ebb7 f   LIBCMT:convrtcp.obj
 0001:0002dd6b       ___report_gsfailure        1002ed6b f   LIBCMT:gs_report.obj
 0001:0002de71       __lseeki64_nolock          1002ee71 f   LIBCMT:lseeki64.obj
 0001:0002def6       __lseeki64                 1002eef6 f   LIBCMT:lseeki64.obj
 0001:0002e00f       __write_nolock             1002f00f f   LIBCMT:write.obj
 0001:0002e742       __write                    1002f742 f   LIBCMT:write.obj
 0001:0002e81e       __getbuf                   1002f81e f   LIBCMT:_getbuf.obj
 0001:0002e867       __isatty                   1002f867 f   LIBCMT:isatty.obj
 0001:0002e8cb       ___iob_func                1002f8cb f   LIBCMT:_file.obj
 0001:0002e8d1       ___initstdio               1002f8d1 f   LIBCMT:_file.obj
 0001:0002e982       ___endstdio                1002f982 f   LIBCMT:_file.obj
 0001:0002e9a2       __lock_file                1002f9a2 f   LIBCMT:_file.obj
 0001:0002e9e3       __lock_file2               1002f9e3 f   LIBCMT:_file.obj
 0001:0002ea15       __unlock_file              1002fa15 f   LIBCMT:_file.obj
 0001:0002ea51       __unlock_file2             1002fa51 f   LIBCMT:_file.obj
 0001:0002ea80       __fileno                   1002fa80 f   LIBCMT:fileno.obj
 0001:0002eab2       __get_printf_count_output  1002fab2 f   LIBCMT:printf.obj
 0001:0002eac8       __mbtowc_l                 1002fac8 f   LIBCMT:mbtowc.obj
 0001:0002ebdf       _mbtowc                    1002fbdf f   LIBCMT:mbtowc.obj
 0001:0002ebf9       __wctomb_s_l               1002fbf9 f   LIBCMT:wctomb.obj
 0001:0002ed65       _wctomb_s                  1002fd65 f   LIBCMT:wctomb.obj
 0001:0002ed82       _$I10_OUTPUT               1002fd82 f   LIBCMT:_x10fout_.obj
 0001:0002f7d4       __control87                100307d4 f i LIBCMT:_ieee87_.obj
 0001:0002fae4       __global_unwind2           10030ae4 f   LIBCMT:exsup.obj
 0001:0002fb49       __local_unwind2            10030b49 f   LIBCMT:exsup.obj
 0001:0002fbcd       __abnormal_termination     10030bcd f   LIBCMT:exsup.obj
 0001:0002fbf0       __NLG_Notify1              10030bf0 f   LIBCMT:exsup.obj
 0001:0002fbf9       __NLG_Notify               10030bf9 f   LIBCMT:exsup.obj
 0001:0002fc10       __NLG_Dispatch2            10030c10     LIBCMT:exsup.obj
 0001:0002fc10       __NLG_Dispatch             10030c10     LIBCMT:exsup.obj
 0001:0002fc18       __NLG_Call                 10030c18 f   LIBCMT:exsup.obj
 0001:0002fc1a       __NLG_Return2              10030c1a     LIBCMT:exsup.obj
 0001:0002fc1b       ___ascii_stricmp           10030c1b f   LIBCMT:stricmp.obj
 0001:0002fc54       __stricmp_l                10030c54 f   LIBCMT:stricmp.obj
 0001:0002fd29       __stricmp                  10030d29 f   LIBCMT:stricmp.obj
 0001:0002fd29       _stricmp                   10030d29 f   LIBCMT:stricmp.obj
 0001:0002fd7b       __free_osfhnd              10030d7b f   LIBCMT:osfinfo.obj
 0001:0002fe01       __get_osfhandle            10030e01 f   LIBCMT:osfinfo.obj
 0001:0002fe78       ___lock_fhandle            10030e78 f   LIBCMT:osfinfo.obj
 0001:0002ff18       __unlock_fhandle           10030f18 f   LIBCMT:osfinfo.obj
 0001:0002ff3f       __putwch_nolock            10030f3f f   LIBCMT:putwch.obj
 0001:00030004       __fcloseall                10031004 f   LIBCMT:closeall.obj
 0001:000300a3       __flush                    100310a3 f   LIBCMT:fflush.obj
 0001:0003010b       __fflush_nolock            1003110b f   LIBCMT:fflush.obj
 0001:0003022d       __flushall                 1003122d f   LIBCMT:fflush.obj
 0001:00030240       ___ascii_strnicmp          10031240 f   LIBCMT:_strnicm.obj
 0001:000302a1       ___initconout              100312a1 f   LIBCMT:initcon.obj
 0001:000302c0       ___termcon                 100312c0 f   LIBCMT:initcon.obj
 0001:000302ed       __fclose_nolock            100312ed f   LIBCMT:fclose.obj
 0001:00030364       _fclose                    10031364 f   LIBCMT:fclose.obj
 0001:000303e0       __commit                   100313e0 f   LIBCMT:commit.obj
 0001:000304c1       __close_nolock             100314c1 f   LIBCMT:close.obj
 0001:0003055d       __close                    1003155d f   LIBCMT:close.obj
 0001:0003062a       __freebuf                  1003162a f   LIBCMT:_freebuf.obj
 0001:0003065c       _RtlUnwind@16              1003165c f   kernel32:KERNEL32.dll
 0002:00000000       __imp__GetSystemTimeAsFileTime@4 10039000     kernel32:KERNEL32.dll
 0002:00000004       __imp__FlushFileBuffers@4  10039004     kernel32:KERNEL32.dll
 0002:00000008       __imp__CloseHandle@4       10039008     kernel32:KERNEL32.dll
 0002:0000000c       __imp__CreateFileA@28      1003900c     kernel32:KERNEL32.dll
 0002:00000010       __imp__MultiByteToWideChar@24 10039010     kernel32:KERNEL32.dll
 0002:00000014       __imp__WideCharToMultiByte@32 10039014     kernel32:KERNEL32.dll
 0002:00000018       __imp__GetProcAddress@8    10039018     kernel32:KERNEL32.dll
 0002:0000001c       __imp__GetModuleHandleA@4  1003901c     kernel32:KERNEL32.dll
 0002:00000020       __imp__GetCurrentThreadId@0 10039020     kernel32:KERNEL32.dll
 0002:00000024       __imp__GetCommandLineA@0   10039024     kernel32:KERNEL32.dll
 0002:00000028       __imp__GetLastError@0      10039028     kernel32:KERNEL32.dll
 0002:0000002c       __imp__UnhandledExceptionFilter@4 1003902c     kernel32:KERNEL32.dll
 0002:00000030       __imp__SetUnhandledExceptionFilter@4 10039030     kernel32:KERNEL32.dll
 0002:00000034       __imp__WriteFile@20        10039034     kernel32:KERNEL32.dll
 0002:00000038       __imp__GetStdHandle@4      10039038     kernel32:KERNEL32.dll
 0002:0000003c       __imp__GetModuleFileNameA@12 1003903c     kernel32:KERNEL32.dll
 0002:00000040       __imp__GetModuleHandleW@4  10039040     kernel32:KERNEL32.dll
 0002:00000044       __imp__TlsGetValue@4       10039044     kernel32:KERNEL32.dll
 0002:00000048       __imp__TlsAlloc@0          10039048     kernel32:KERNEL32.dll
 0002:0000004c       __imp__TlsSetValue@8       1003904c     kernel32:KERNEL32.dll
 0002:00000050       __imp__TlsFree@4           10039050     kernel32:KERNEL32.dll
 0002:00000054       __imp__InterlockedIncrement@4 10039054     kernel32:KERNEL32.dll
 0002:00000058       __imp__SetLastError@4      10039058     kernel32:KERNEL32.dll
 0002:0000005c       __imp__InterlockedDecrement@4 1003905c     kernel32:KERNEL32.dll
 0002:00000060       __imp__Sleep@4             10039060     kernel32:KERNEL32.dll
 0002:00000064       __imp__HeapSize@12         10039064     kernel32:KERNEL32.dll
 0002:00000068       __imp__ExitProcess@4       10039068     kernel32:KERNEL32.dll
 0002:0000006c       __imp__HeapFree@12         1003906c     kernel32:KERNEL32.dll
 0002:00000070       __imp__HeapAlloc@12        10039070     kernel32:KERNEL32.dll
 0002:00000074       __imp__RaiseException@16   10039074     kernel32:KERNEL32.dll
 0002:00000078       __imp__SetHandleCount@4    10039078     kernel32:KERNEL32.dll
 0002:0000007c       __imp__GetFileType@4       1003907c     kernel32:KERNEL32.dll
 0002:00000080       __imp__GetStartupInfoA@4   10039080     kernel32:KERNEL32.dll
 0002:00000084       __imp__DeleteCriticalSection@4 10039084     kernel32:KERNEL32.dll
 0002:00000088       __imp__FreeEnvironmentStringsA@4 10039088     kernel32:KERNEL32.dll
 0002:0000008c       __imp__GetEnvironmentStrings@0 1003908c     kernel32:KERNEL32.dll
 0002:00000090       __imp__FreeEnvironmentStringsW@4 10039090     kernel32:KERNEL32.dll
 0002:00000094       __imp__GetEnvironmentStringsW@0 10039094     kernel32:KERNEL32.dll
 0002:00000098       __imp__HeapCreate@12       10039098     kernel32:KERNEL32.dll
 0002:0000009c       __imp__HeapDestroy@4       1003909c     kernel32:KERNEL32.dll
 0002:000000a0       __imp__VirtualFree@12      100390a0     kernel32:KERNEL32.dll
 0002:000000a4       __imp__QueryPerformanceCounter@4 100390a4     kernel32:KERNEL32.dll
 0002:000000a8       __imp__GetTickCount@0      100390a8     kernel32:KERNEL32.dll
 0002:000000ac       __imp__GetCurrentProcessId@0 100390ac     kernel32:KERNEL32.dll
 0002:000000b0       __imp__WriteConsoleW@20    100390b0     kernel32:KERNEL32.dll
 0002:000000b4       __imp__GetCPInfo@8         100390b4     kernel32:KERNEL32.dll
 0002:000000b8       __imp__GetACP@0            100390b8     kernel32:KERNEL32.dll
 0002:000000bc       __imp__GetOEMCP@0          100390bc     kernel32:KERNEL32.dll
 0002:000000c0       __imp__IsValidCodePage@4   100390c0     kernel32:KERNEL32.dll
 0002:000000c4       __imp__TerminateProcess@8  100390c4     kernel32:KERNEL32.dll
 0002:000000c8       __imp__GetCurrentProcess@0 100390c8     kernel32:KERNEL32.dll
 0002:000000cc       __imp__IsDebuggerPresent@0 100390cc     kernel32:KERNEL32.dll
 0002:000000d0       __imp__LCMapStringA@24     100390d0     kernel32:KERNEL32.dll
 0002:000000d4       __imp__LCMapStringW@24     100390d4     kernel32:KERNEL32.dll
 0002:000000d8       __imp__LeaveCriticalSection@4 100390d8     kernel32:KERNEL32.dll
 0002:000000dc       __imp__EnterCriticalSection@4 100390dc     kernel32:KERNEL32.dll
 0002:000000e0       __imp__RtlUnwind@16        100390e0     kernel32:KERNEL32.dll
 0002:000000e4       __imp__LoadLibraryA@4      100390e4     kernel32:KERNEL32.dll
 0002:000000e8       __imp__GetLocaleInfoA@16   100390e8     kernel32:KERNEL32.dll
 0002:000000ec       __imp__HeapReAlloc@16      100390ec     kernel32:KERNEL32.dll
 0002:000000f0       __imp__VirtualAlloc@16     100390f0     kernel32:KERNEL32.dll
 0002:000000f4       __imp__InitializeCriticalSectionAndSpinCount@8 100390f4     kernel32:KERNEL32.dll
 0002:000000f8       __imp__GetStringTypeA@20   100390f8     kernel32:KERNEL32.dll
 0002:000000fc       __imp__GetStringTypeW@16   100390fc     kernel32:KERNEL32.dll
 0002:00000100       __imp__SetFilePointer@16   10039100     kernel32:KERNEL32.dll
 0002:00000104       __imp__GetConsoleCP@0      10039104     kernel32:KERNEL32.dll
 0002:00000108       __imp__GetConsoleMode@8    10039108     kernel32:KERNEL32.dll
 0002:0000010c       __imp__SetStdHandle@8      1003910c     kernel32:KERNEL32.dll
 0002:00000110       __imp__WriteConsoleA@20    10039110     kernel32:KERNEL32.dll
 0002:00000114       __imp__GetConsoleOutputCP@0 10039114     kernel32:KERNEL32.dll
 0002:00000118       \177KERNEL32_NULL_THUNK_DATA 10039118     kernel32:KERNEL32.dll
 0002:0000011c       __imp__GetCPUInformation   1003911c     tier0:tier0.dll
 0002:00000120       __imp__CommandLine_Tier0   10039120     tier0:tier0.dll
 0002:00000124       __imp_?DevMsg@@YAXPBDZZ    10039124     tier0:tier0.dll
 0002:00000128       __imp__Warning             10039128     tier0:tier0.dll
 0002:0000012c       __imp__g_pMemAlloc         1003912c     tier0:tier0.dll
 0002:00000130       __imp__AssertValidStringPtr 10039130     tier0:tier0.dll
 0002:00000134       __imp___AssertValidWritePtr 10039134     tier0:tier0.dll
 0002:00000138       \177tier0_NULL_THUNK_DATA  10039138     tier0:tier0.dll
 0002:0000013c       ___xc_a                    1003913c     LIBCMT:crt0init.obj
 0002:00000b50       ___xc_z                    10039b50     LIBCMT:crt0init.obj
 0002:00000b54       ___xi_a                    10039b54     LIBCMT:crt0init.obj
 0002:00000b6c       ___xi_z                    10039b6c     LIBCMT:crt0init.obj
 0002:00000b70       ___xp_a                    10039b70     LIBCMT:crt0init.obj
 0002:00000b7c       ___xp_z                    10039b7c     LIBCMT:crt0init.obj
 0002:00000b80       ___xt_a                    10039b80     LIBCMT:crt0init.obj
 0002:00000b84       ___xt_z                    10039b84     LIBCMT:crt0init.obj
 0002:00000bac       ??_C@_0BD@NNFOBGDC@SDK_Aftershock_dx9?$AA@ 10039bac     aftershock.obj
 0002:00000bc0       ??_C@_0P@PFNDMNHD@SDK_Aftershock?$AA@ 10039bc0     aftershock.obj
 0002:00000bcf       ??_C@_00CNPNBAHC@?$AA@     10039bcf     aftershock.obj
 0002:00000bd4       ??_7CShader@SDK_Aftershock@@6B@ 10039bd4     aftershock.obj
 0002:00000c24       ??_C@_0L@JKNNGCKM@Aftershock?$AA@ 10039c24     aftershock.obj
 0002:00000c34       ??_7CShader@SDK_Aftershock_dx9@@6B@ 10039c34     aftershock.obj
 0002:00000c84       ??_C@_0P@CLNIMFKG@Aftershock_dx8?$AA@ 10039c84     aftershock.obj
 0002:00000c94       ??_C@_0L@NEPAPPNL@$COLORTINT?$AA@ 10039c94     aftershock.obj
 0002:00000ca0       ??_C@_0L@HHJPMOMN@Color?5tint?$AA@ 10039ca0     aftershock.obj
 0002:00000cac       ??_C@_07INOGPGGA@?$FL1?51?51?$FN?$AA@ 10039cac     aftershock.obj
 0002:00000cb4       ??_C@_0P@CHMMDNBF@$REFRACTAMOUNT?$AA@ 10039cb4     aftershock.obj
 0002:00000cc4       ??_C@_01FDFGLJHB@2?$AA@    10039cc4     aftershock.obj
 0002:00000cc8       ??_C@_0L@OKCAPPED@$NORMALMAP?$AA@ 10039cc8     aftershock.obj
 0002:00000cd4       ??_C@_0L@BPNNKCKC@normal?5map?$AA@ 10039cd4     aftershock.obj
 0002:00000ce0       ??_C@_0CB@BBKCKLDB@models?1shadertest?1shader1_normal@ 10039ce0     aftershock.obj
 0002:00000d04       ??_C@_0L@NMMMLADI@$BUMPFRAME?$AA@ 10039d04     aftershock.obj
 0002:00000d10       ??_C@_0BK@FDIPAKLM@frame?5number?5for?5$bumpmap?$AA@ 10039d10     aftershock.obj
 0002:00000d2c       ??_C@_01GBGANLPD@0?$AA@    10039d2c     aftershock.obj
 0002:00000d30       ??_C@_0P@OBPMKMDJ@$BUMPTRANSFORM?$AA@ 10039d30     aftershock.obj
 0002:00000d40       ??_C@_0BM@KHPCFGBA@$bumpmap?5texcoord?5transform?$AA@ 10039d40     aftershock.obj
 0002:00000d5c       ??_C@_0CO@CGOPOACG@center?5?45?5?45?5scale?51?51?5rotate?50?5@ 10039d5c     aftershock.obj
 0002:00000d8c       ??_C@_0BF@BILMPDO@$SILHOUETTETHICKNESS?$AA@ 10039d8c     aftershock.obj
 0002:00000da4       ??_C@_01HIHLOKLC@1?$AA@    10039da4     aftershock.obj
 0002:00000da8       ??_C@_0BB@BAOLKIIG@$SILHOUETTECOLOR?$AA@ 10039da8     aftershock.obj
 0002:00000dbc       ??_C@_0BG@JJMKACCM@Silhouette?5color?5tint?$AA@ 10039dbc     aftershock.obj
 0002:00000dd4       ??_C@_0L@ODEBBAIP@$GROUNDMIN?$AA@ 10039dd4     aftershock.obj
 0002:00000de0       ??_C@_0L@PBMKPEOA@$GROUNDMAX?$AA@ 10039de0     aftershock.obj
 0002:00000dec       ??_C@_0M@GJGAABHI@$BLURAMOUNT?$AA@ 10039dec     aftershock.obj
 0002:00000df8       ??_C@_05MMDMCBD@$TIME?$AA@ 10039df8     aftershock.obj
 0002:00000e00       ??_C@_0BI@FGJNLG@Needs?5CurrentTime?5Proxy?$AA@ 10039e00     aftershock.obj
 0002:00000e18       ??_C@_03MDAFIFFL@0?40?$AA@ 10039e18     aftershock.obj
 0002:00000e50       __real@447a0000            10039e50     aftershock_helper.obj
 0002:00000e54       __real@3a83126f            10039e54     aftershock_helper.obj
 0002:00000e58       ??_C@_0BE@CPHJIFJF@sdk_aftershock_ps20?$AA@ 10039e58     aftershock_helper.obj
 0002:00000e6c       ??_C@_0BF@NHIBBHGL@sdk_aftershock_ps20b?$AA@ 10039e6c     aftershock_helper.obj
 0002:00000e84       ??_C@_0BE@KADJHADF@sdk_aftershock_vs20?$AA@ 10039e84     aftershock_helper.obj
 0002:00000ebc       __real@40200000            10039ebc     BaseVSShader.obj
 0002:00000ec0       __real@40000000            10039ec0     BaseVSShader.obj
 0002:00000ec4       __real@3e800000            10039ec4     BaseVSShader.obj
 0002:00000ec8       __real@3dcccccd            10039ec8     BaseVSShader.obj
 0002:00000ecc       __real@3a800000            10039ecc     BaseVSShader.obj
 0002:00000ed0       __real@3f800000            10039ed0     BaseVSShader.obj
 0002:00000ed4       __real@3f000000            10039ed4     BaseVSShader.obj
 0002:00000ed8       __real@3f19999a            10039ed8     BaseVSShader.obj
 0002:00000edc       ??_C@_0BE@BLOGKICP@sdk_flashlight_ps11?$AA@ 10039edc     BaseVSShader.obj
 0002:00000ef0       ??_C@_0CF@HDFHLIEO@sdk_vertexlitgeneric_flashlight_@ 10039ef0     BaseVSShader.obj
 0002:00000f18       ??_C@_0CH@HEOPIJLP@sdk_lightmappedgeneric_flashligh@ 10039f18     BaseVSShader.obj
 0002:00000f40       __real@3d000000            10039f40     BaseVSShader.obj
 0002:00000f44       __real@44800000            10039f44     BaseVSShader.obj
 0002:00000f48       __real@3ff0000000000000    10039f48     BaseVSShader.obj
 0002:00000f50       __real@40800000            10039f50     BaseVSShader.obj
 0002:00000f54       ??_C@_0BH@OCFDAJKO@depthtodestalpha_ps20b?$AA@ 10039f54     BaseVSShader.obj
 0002:00000f6c       ??_C@_0BG@MHIPEPBN@depthtodestalpha_vs20?$AA@ 10039f6c     BaseVSShader.obj
 0002:00000f84       __real@41b40000            10039f84     BaseVSShader.obj
 0002:00000f88       __real@42200000            10039f88     BaseVSShader.obj
 0002:00000f8c       ??_C@_0BE@LLCHDH@sdk_flashlight_ps20?$AA@ 10039f8c     BaseVSShader.obj
 0002:00000fa0       ??_C@_0BF@OPHGBHAN@sdk_flashlight_ps20b?$AA@ 10039fa0     BaseVSShader.obj
 0002:00000fb8       ??_C@_0CH@GPLCAGKH@sdk_lightmappedgeneric_flashligh@ 10039fb8     BaseVSShader.obj
 0002:00000fe0       ??_C@_0P@EDPJKOMO@mat_fullbright?$AA@ 10039fe0     BaseVSShader.obj
 0002:00000ff0       ??_C@_09ICINPAKF@SDK_Bloom?$AA@ 10039ff0     Bloom.obj
 0002:00000ffc       ??_C@_0P@IDJLBNJK@Help?5for?5Bloom?$AA@ 10039ffc     Bloom.obj
 0002:00001014       ??_7CShader@SDK_Bloom@@6B@ 1003a014     Bloom.obj
 0002:00001064       ??_C@_09GCGMAPH@Wireframe?$AA@ 1003a064     Bloom.obj
 0002:00001070       ??_C@_0P@CLJDKEKN@sdk_bloom_ps20?$AA@ 1003a070     Bloom.obj
 0002:00001080       ??_C@_0BA@PPIHEFNE@sdk_bloom_ps20b?$AA@ 1003a080     Bloom.obj
 0002:00001090       ??_C@_0BL@MJNPLBGG@sdk_screenspaceeffect_vs20?$AA@ 1003a090     Bloom.obj
 0002:000010ac       ??_C@_0L@DFAJBEFN@$FBTEXTURE?$AA@ 1003a0ac     Bloom.obj
 0002:000010b8       ??_C@_0BA@ILBMGKJD@_rt_FullFrameFB?$AA@ 1003a0b8     Bloom.obj
 0002:000010c8       ??_C@_0N@HECLOENI@$BLURTEXTURE?$AA@ 1003a0c8     Bloom.obj
 0002:000010d8       ??_C@_0O@FFJMKBBH@_rt_SmallHDR0?$AA@ 1003a0d8     Bloom.obj
 0002:000010e8       ??_C@_0O@NIMHPKGH@SDK_Cable_DX9?$AA@ 1003a0e8     cable_dx9.obj
 0002:000010f8       ??_C@_0BG@PGNKLCFF@Help?5for?5Cable?5shader?$AA@ 1003a0f8     cable_dx9.obj
 0002:00001110       ??_C@_09IJLEALDN@SDK_Cable?$AA@ 1003a110     cable_dx9.obj
 0002:00001124       ??_7CShader@SDK_Cable@@6B@ 1003a124     cable_dx9.obj
 0002:0000117c       ??_7CShader@SDK_Cable_DX9@@6B@ 1003a17c     cable_dx9.obj
 0002:000011cc       ??_C@_09HPAEPFPA@Cable_DX8?$AA@ 1003a1cc     cable_dx9.obj
 0002:000011d8       ??_C@_0P@FDMMFOAO@sdk_cable_ps20?$AA@ 1003a1d8     cable_dx9.obj
 0002:000011e8       ??_C@_0BA@LACAOIHM@sdk_cable_ps20b?$AA@ 1003a1e8     cable_dx9.obj
 0002:000011f8       ??_C@_0P@NMIMKLKO@sdk_cable_vs20?$AA@ 1003a1f8     cable_dx9.obj
 0002:00001208       ??_C@_08PFPGNHEE@$BUMPMAP?$AA@ 1003a208     cable_dx9.obj
 0002:00001214       ??_C@_0BA@EDBLJOED@bumpmap?5texture?$AA@ 1003a214     cable_dx9.obj
 0002:00001224       ??_C@_0BF@EODCNEGG@cable?1cablenormalmap?$AA@ 1003a224     cable_dx9.obj
 0002:0000123c       ??_C@_09NMBMNDBC@$MINLIGHT?$AA@ 1003a23c     cable_dx9.obj
 0002:00001248       ??_C@_0CE@EOODHLC@Minimum?5amount?5of?5light?5?$CI0?91?5val@ 1003a248     cable_dx9.obj
 0002:0000126c       ??_C@_03NKBOLEBK@0?41?$AA@ 1003a26c     cable_dx9.obj
 0002:00001270       ??_C@_09LPHGBFD@$MAXLIGHT?$AA@ 1003a270     cable_dx9.obj
 0002:0000127c       ??_C@_0BI@DMPJIIDH@Maximum?5amount?5of?5light?$AA@ 1003a27c     cable_dx9.obj
 0002:00001294       ??_C@_03OICINGJI@0?43?$AA@ 1003a294     cable_dx9.obj
 0002:000012b0       ??_C@_0BM@CCPNCIFL@sdk_cloak_blended_pass_ps30?$AA@ 1003a2b0     cloak_blended_pass_helper.obj
 0002:000012cc       ??_C@_0BM@KNLNNNPL@sdk_cloak_blended_pass_vs30?$AA@ 1003a2cc     cloak_blended_pass_helper.obj
 0002:000012e8       ??_C@_0BM@CDDPECGM@sdk_cloak_blended_pass_ps20?$AA@ 1003a2e8     cloak_blended_pass_helper.obj
 0002:00001304       ??_C@_0BN@BDOMBLBE@sdk_cloak_blended_pass_ps20b?$AA@ 1003a304     cloak_blended_pass_helper.obj
 0002:00001324       ??_C@_0BM@KMHPLHMM@sdk_cloak_blended_pass_vs20?$AA@ 1003a324     cloak_blended_pass_helper.obj
 0002:00001340       __real@3ecccccd            1003a340     cloak_blended_pass_helper.obj
 0002:00001344       __real@3faccccd            1003a344     cloak_blended_pass_helper.obj
 0002:00001348       __real@bf800000            1003a348     cloak_dx9_helper.obj
 0002:0000134c       ??_C@_0BE@DHEBPGBJ@r_lightwarpidentity?$AA@ 1003a34c     cloak_dx9_helper.obj
 0002:00001360       ??_C@_0O@MJOPCFCM@SDK_Core_DX90?$AA@ 1003a360     core_dx9.obj
 0002:00001370       ??_C@_0O@LKFPBOAF@Help?5for?5Core?$AA@ 1003a370     core_dx9.obj
 0002:00001380       ??_C@_08HHMDCHEE@SDK_Core?$AA@ 1003a380     core_dx9.obj
 0002:00001394       ??_7CShader@SDK_Core@@6B@  1003a394     core_dx9.obj
 0002:000013e4       ??_C@_08PNBPAFID@override?$AA@ 1003a3e4     core_dx9.obj
 0002:000013f4       ??_7CShader@SDK_Core_DX90@@6B@ 1003a3f4     core_dx9.obj
 0002:00001444       ??_C@_09BGMEJLMA@Core_dx90?$AA@ 1003a444     core_dx9.obj
 0002:00001450       ??_C@_0O@MPFOBHLB@sdk_core_ps20?$AA@ 1003a450     core_dx9.obj
 0002:00001460       ??_C@_0P@OLGCNECI@sdk_core_ps20b?$AA@ 1003a460     core_dx9.obj
 0002:00001470       ??_C@_0O@EABOOCBB@sdk_core_vs20?$AA@ 1003a470     core_dx9.obj
 0002:00001480       ??_C@_06OJAIHGIC@unused?$AA@ 1003a480     core_dx9.obj
 0002:00001488       ??_C@_0O@OCOEAKFF@?$HL255?5255?5255?$HN?$AA@ 1003a488     core_dx9.obj
 0002:00001498       ??_C@_03HLLJOCDO@1?40?$AA@ 1003a498     core_dx9.obj
 0002:0000149c       ??_C@_0N@LDIEFGGH@$REFRACTTINT?$AA@ 1003a49c     core_dx9.obj
 0002:000014ac       ??_C@_0BA@HHKHDCGM@refraction?5tint?$AA@ 1003a4ac     core_dx9.obj
 0002:000014bc       ??_C@_04MPNNEBNI@0?40f?$AA@ 1003a4bc     core_dx9.obj
 0002:000014c4       ??_C@_07NBEOHNNA@$ENVMAP?$AA@ 1003a4c4     core_dx9.obj
 0002:000014cc       ??_C@_06FABHMPLJ@envmap?$AA@ 1003a4cc     core_dx9.obj
 0002:000014d4       ??_C@_0BK@PAPJFBHL@shadertest?1shadertest_env?$AA@ 1003a4d4     core_dx9.obj
 0002:000014f0       ??_C@_0N@LPLBLMNN@$ENVMAPFRAME?$AA@ 1003a4f0     core_dx9.obj
 0002:00001500       ??_C@_0BE@OOFDOFAF@envmap?5frame?5number?$AA@ 1003a500     core_dx9.obj
 0002:00001514       ??_C@_0M@GKAPIEHF@$ENVMAPTINT?$AA@ 1003a514     core_dx9.obj
 0002:00001520       ??_C@_0M@NEOBNNPM@envmap?5tint?$AA@ 1003a520     core_dx9.obj
 0002:0000152c       ??_C@_0BA@EPLKPKAO@$ENVMAPCONTRAST?$AA@ 1003a52c     core_dx9.obj
 0002:0000153c       ??_C@_0CG@CIFJOHKP@contrast?50?5?$DN?$DN?5normal?51?5?$DN?$DN?5color?$CK@ 1003a53c     core_dx9.obj
 0002:00001564       ??_C@_0BC@IDPPLOBL@$ENVMAPSATURATION?$AA@ 1003a564     core_dx9.obj
 0002:00001578       ??_C@_0CG@MHHCDKGK@saturation?50?5?$DN?$DN?5greyscale?51?5?$DN?$DN?5n@ 1003a578     core_dx9.obj
 0002:000015a0       ??_C@_08HMBCHNLI@$FLOWMAP?$AA@ 1003a5a0     core_dx9.obj
 0002:000015ac       ??_C@_07NNHJNJFE@flowmap?$AA@ 1003a5ac     core_dx9.obj
 0002:000015b4       ??_C@_0O@GIPMJFCB@$FLOWMAPFRAME?$AA@ 1003a5b4     core_dx9.obj
 0002:000015c4       ??_C@_0BK@NKGLKAEA@frame?5number?5for?5$flowmap?$AA@ 1003a5c4     core_dx9.obj
 0002:000015e0       ??_C@_0BD@MNKCJGLE@$FLOWMAPSCROLLRATE?$AA@ 1003a5e0     core_dx9.obj
 0002:000015f4       ??_C@_0BL@KMLLOIPM@2D?5rate?5to?5scroll?5$flowmap?$AA@ 1003a5f4     core_dx9.obj
 0002:00001610       ??_C@_04GBDOHOIK@?$FL0?50?$AA@ 1003a610     core_dx9.obj
 0002:00001618       ??_C@_0BC@NKEEKNGH@$CORECOLORTEXTURE?$AA@ 1003a618     core_dx9.obj
 0002:0000162c       ??_C@_0BH@NFGBINFN@$CORECOLORTEXTUREFRAME?$AA@ 1003a62c     core_dx9.obj
 0002:00001644       ??_C@_0BH@DBAJKBMA@$FLOWMAPTEXCOORDOFFSET?$AA@ 1003a644     core_dx9.obj
 0002:0000165c       ??_C@_0P@PCHPMIEF@SDK_AfterShock?$AA@ 1003a65c     dx8fallbacks.obj
 0002:0000166c       ??_C@_0N@DFOHMAFL@SDK_EyeGlint?$AA@ 1003a66c     dx8fallbacks.obj
 0002:0000167c       ??_C@_0BB@DKPIHBDO@SDK_VolumeClouds?$AA@ 1003a67c     dx8fallbacks.obj
 0002:00001690       ??_C@_0P@FBKLKPCE@SDK_EyeRefract?$AA@ 1003a690     dx8fallbacks.obj
 0002:000016a0       ??_C@_0P@FFAMHGKP@SDK_DepthWrite?$AA@ 1003a6a0     dx8fallbacks.obj
 0002:000016b4       ??_7CShader@SDK_DepthWrite@@6B@ 1003a6b4     dx8fallbacks.obj
 0002:0000170c       ??_7CShader@SDK_EyeRefract@@6B@ 1003a70c     dx8fallbacks.obj
 0002:0000175c       ??_C@_08CJKOIGNC@Eyes_dx8?$AA@ 1003a75c     dx8fallbacks.obj
 0002:0000176c       ??_7CShader@SDK_VolumeClouds@@6B@ 1003a76c     dx8fallbacks.obj
 0002:000017bc       ??_C@_0BB@NHPLMNJG@UnlitGeneric_DX8?$AA@ 1003a7bc     dx8fallbacks.obj
 0002:000017d4       ??_7CShader@SDK_EyeGlint@@6B@ 1003a7d4     dx8fallbacks.obj
 0002:00001824       ??_C@_08OGMJAGCJ@EyeGlint?$AA@ 1003a824     dx8fallbacks.obj
 0002:00001834       ??_7CShader@SDK_AfterShock@@6B@ 1003a834     dx8fallbacks.obj
 0002:00001884       ??_C@_0L@JNHBGHJK@AfterShock?$AA@ 1003a884     dx8fallbacks.obj
 0002:000018b4       ??_C@_0CG@JDMMIBAD@sdk_emissive_scroll_blended_pass@ 1003a8b4     emissive_scroll_blended_pass_helper.obj
 0002:000018dc       ??_C@_0CG@BMIMHEKD@sdk_emissive_scroll_blended_pass@ 1003a8dc     emissive_scroll_blended_pass_helper.obj
 0002:00001904       ??_C@_0CG@JCAOOLDE@sdk_emissive_scroll_blended_pass@ 1003a904     emissive_scroll_blended_pass_helper.obj
 0002:0000192c       ??_C@_0CH@HGONPDHL@sdk_emissive_scroll_blended_pass@ 1003a92c     emissive_scroll_blended_pass_helper.obj
 0002:00001954       ??_C@_0CG@BNEOBOJE@sdk_emissive_scroll_blended_pass@ 1003a954     emissive_scroll_blended_pass_helper.obj
 0002:0000197c       ??_C@_0BD@PGIKKKGI@SDK_EyeRefract_dx9?$AA@ 1003a97c     eye_refract.obj
 0002:00001990       ??_C@_0O@EFJMODME@Help?5for?5Eyes?$AA@ 1003a990     eye_refract.obj
 0002:000019a4       ??_7CShader@SDK_EyeRefract_dx9@@6B@ 1003a9a4     eye_refract.obj
 0002:000019f4       ??_C@_05IDKFMLF@$IRIS?$AA@ 1003a9f4     eye_refract.obj
 0002:000019fc       ??_C@_0N@MCDCENM@iris?5texture?$AA@ 1003a9fc     eye_refract.obj
 0002:00001a0c       ??_C@_0BH@JAMKOLPG@shadertest?1BaseTexture?$AA@ 1003aa0c     eye_refract.obj
 0002:00001a24       ??_C@_0L@PFOPDCGB@$IRISFRAME?$AA@ 1003aa24     eye_refract.obj
 0002:00001a30       ??_C@_0BL@GBJKJHPO@frame?5for?5the?5iris?5texture?$AA@ 1003aa30     eye_refract.obj
 0002:00001a4c       ??_C@_0P@JMEAOGPG@$CORNEATEXTURE?$AA@ 1003aa4c     eye_refract.obj
 0002:00001a5c       ??_C@_0P@COBDAPOK@cornea?5texture?$AA@ 1003aa5c     eye_refract.obj
 0002:00001a6c       ??_C@_0BE@DGHNKAO@$AMBIENTOCCLTEXTURE?$AA@ 1003aa6c     eye_refract.obj
 0002:00001a80       ??_C@_0BD@KJOHAFNP@reflection?5texture?$AA@ 1003aa80     eye_refract.obj
 0002:00001a94       ??_C@_0L@NELGGHBC@$EYEORIGIN?$AA@ 1003aa94     eye_refract.obj
 0002:00001aa0       ??_C@_0BE@FCMHLAI@origin?5for?5the?5eyes?$AA@ 1003aaa0     eye_refract.obj
 0002:00001ab4       ??_C@_07BHDDLOFD@?$FL0?50?50?$FN?$AA@ 1003aab4     eye_refract.obj
 0002:00001abc       ??_C@_06HMMPNEEO@$IRISU?$AA@ 1003aabc     eye_refract.obj
 0002:00001ac4       ??_C@_0CB@KLEOFJMG@U?5projection?5vector?5for?5the?5iris@ 1003aac4     eye_refract.obj
 0002:00001ae8       ??_C@_0L@KBPHMLGG@?$FL0?51?50?50?5?$FN?$AA@ 1003aae8     eye_refract.obj
 0002:00001af4       ??_C@_06FHOCIHIN@$IRISV?$AA@ 1003aaf4     eye_refract.obj
 0002:00001afc       ??_C@_0CB@PAFJOIND@V?5projection?5vector?5for?5the?5iris@ 1003aafc     eye_refract.obj
 0002:00001b20       ??_C@_09DCAEBAFH@?$FL0?50?51?50?$FN?$AA@ 1003ab20     eye_refract.obj
 0002:00001b2c       ??_C@_09JGHDKPOA@$DILATION?$AA@ 1003ab2c     eye_refract.obj
 0002:00001b38       ??_C@_0CJ@LCBFEMOF@Pupil?5dilation?5?$CI0?5is?5none?0?51?5is?5@ 1003ab38     eye_refract.obj
 0002:00001b64       ??_C@_0M@LAGFHCHB@$GLOSSINESS?$AA@ 1003ab64     eye_refract.obj
 0002:00001b70       ??_C@_0DJ@MPDJNFBC@Glossiness?5of?5eye?5?$CI1?5is?5default?0@ 1003ab70     eye_refract.obj
 0002:00001bac       ??_C@_0BE@LFOPHCHG@$SPHERETEXKILLCOMBO?$AA@ 1003abac     eye_refract.obj
 0002:00001bc0       ??_C@_0BN@HCJALENF@texkill?5pixels?5not?5on?5sphere?$AA@ 1003abc0     eye_refract.obj
 0002:00001be0       ??_C@_0BA@HEIFGGGK@$RAYTRACESPHERE?$AA@ 1003abe0     eye_refract.obj
 0002:00001bf0       ??_C@_0BA@CJJCANPK@Raytrace?5sphere?$AA@ 1003abf0     eye_refract.obj
 0002:00001c00       ??_C@_0BC@JCIAHDPD@$PARALLAXSTRENGTH?$AA@ 1003ac00     eye_refract.obj
 0002:00001c14       ??_C@_0BC@GNHFHNHC@Parallax?5strength?$AA@ 1003ac14     eye_refract.obj
 0002:00001c28       ??_C@_0BE@KNDCCDJI@$CORNEABUMPSTRENGTH?$AA@ 1003ac28     eye_refract.obj
 0002:00001c3c       ??_C@_0BA@CPHDJIMO@Cornea?5strength?$AA@ 1003ac3c     eye_refract.obj
 0002:00001c4c       ??_C@_0BC@NCCKHDCF@$AMBIENTOCCLCOLOR?$AA@ 1003ac4c     eye_refract.obj
 0002:00001c60       ??_C@_0BI@IAFCJGNL@Ambient?5occlusion?5color?$AA@ 1003ac60     eye_refract.obj
 0002:00001c78       ??_C@_0P@LAFIACKE@$EYEBALLRADIUS?$AA@ 1003ac78     eye_refract.obj
 0002:00001c88       ??_C@_0BP@BBKHHNNG@Eyeball?5radius?5for?5ray?5casting?$AA@ 1003ac88     eye_refract.obj
 0002:00001ca8       ??_C@_06MKEDLBGD@$INTRO?$AA@ 1003aca8     eye_refract.obj
 0002:00001cb0       ??_C@_0BJ@HLMMMKJE@is?5eyes?5in?5the?5ep1?5intro?$AA@ 1003acb0     eye_refract.obj
 0002:00001ccc       ??_C@_0O@PNPHGPOC@$ENTITYORIGIN?$AA@ 1003accc     eye_refract.obj
 0002:00001cdc       ??_C@_0CD@DGJJJBPJ@center?5if?5the?5model?5in?5world?5spa@ 1003acdc     eye_refract.obj
 0002:00001d00       ??_C@_0L@DIFMENKH@$WARPPARAM?$AA@ 1003ad00     eye_refract.obj
 0002:00001d0c       ??_C@_0CA@EDBFJMPP@animation?5param?5between?50?5and?51?$AA@ 1003ad0c     eye_refract.obj
 0002:00001d2c       ??_C@_0BC@HLBKPCJA@$LIGHTWARPTEXTURE?$AA@ 1003ad2c     eye_refract.obj
 0002:00001d40       ??_C@_0DA@EGDCNMAA@1D?5ramp?5texture?5for?5tinting?5scal@ 1003ad40     eye_refract.obj
 0002:00001d70       ??_C@_0BC@MDLCCKJA@$CLOAKPASSENABLED?$AA@ 1003ad70     eye_refract.obj
 0002:00001d84       ??_C@_0CG@KHOPKLCO@Enables?5cloak?5render?5in?5a?5second@ 1003ad84     eye_refract.obj
 0002:00001dac       ??_C@_0N@IBOEDFCJ@$CLOAKFACTOR?$AA@ 1003adac     eye_refract.obj
 0002:00001dbc       ??_C@_0BA@NCBPJILP@$CLOAKCOLORTINT?$AA@ 1003adbc     eye_refract.obj
 0002:00001dcc       ??_C@_0BB@DFLLDHFA@Cloak?5color?5tint?$AA@ 1003adcc     eye_refract.obj
 0002:00001de0       ??_C@_0BG@PLMDGJOP@$EMISSIVEBLENDENABLED?$AA@ 1003ade0     eye_refract.obj
 0002:00001df8       ??_C@_0BL@LENDGEHC@Enable?5emissive?5blend?5pass?$AA@ 1003adf8     eye_refract.obj
 0002:00001e14       ??_C@_0BL@NIEAOLCP@$EMISSIVEBLENDSCROLLVECTOR?$AA@ 1003ae14     eye_refract.obj
 0002:00001e30       ??_C@_0BE@HHEMJOIN@Emissive?5scroll?5vec?$AA@ 1003ae30     eye_refract.obj
 0002:00001e44       ??_C@_0N@OGNHPCOG@?$FL0?411?50?4124?$FN?$AA@ 1003ae44     eye_refract.obj
 0002:00001e54       ??_C@_0BH@LNJDGBOF@$EMISSIVEBLENDSTRENGTH?$AA@ 1003ae54     eye_refract.obj
 0002:00001e6c       ??_C@_0BI@LOHPBJHL@Emissive?5blend?5strength?$AA@ 1003ae6c     eye_refract.obj
 0002:00001e84       ??_C@_0BG@KPMPKBHA@$EMISSIVEBLENDTEXTURE?$AA@ 1003ae84     eye_refract.obj
 0002:00001e9c       ??_C@_0BG@KJNFPNDK@self?9illumination?5map?$AA@ 1003ae9c     eye_refract.obj
 0002:00001eb4       ??_C@_0BD@EOGLDIFD@$EMISSIVEBLENDTINT?$AA@ 1003aeb4     eye_refract.obj
 0002:00001ec8       ??_C@_0BH@DBOPOPED@Self?9illumination?5tint?$AA@ 1003aec8     eye_refract.obj
 0002:00001ee0       ??_C@_0BK@NMPCGNBP@$EMISSIVEBLENDFLOWTEXTURE?$AA@ 1003aee0     eye_refract.obj
 0002:00001efc       ??_C@_08LELFHPMF@flow?5map?$AA@ 1003aefc     eye_refract.obj
 0002:00001f5c       __real@3a03126f            1003af5c     eye_refract_helper.obj
 0002:00001f60       __real@41800000            1003af60     eye_refract_helper.obj
 0002:00001f64       __real@40400000            1003af64     eye_refract_helper.obj
 0002:00001f68       ??_C@_0BG@DCPCIEMH@effects?1flashlight001?$AA@ 1003af68     eye_refract_helper.obj
 0002:00001f80       ??_C@_0BK@MLNFFBG@effects?1flashlight_border?$AA@ 1003af80     eye_refract_helper.obj
 0002:00001f9c       ??_C@_0BF@DKPPHHL@sdk_eye_refract_ps30?$AA@ 1003af9c     eye_refract_helper.obj
 0002:00001fb4       ??_C@_0BF@IMOPACNL@sdk_eye_refract_vs30?$AA@ 1003afb4     eye_refract_helper.obj
 0002:00001fcc       ??_C@_0BF@CGNJNEM@sdk_eye_refract_ps20?$AA@ 1003afcc     eye_refract_helper.obj
 0002:00001fe4       ??_C@_0BG@CIKDGJAD@sdk_eye_refract_ps20b?$AA@ 1003afe4     eye_refract_helper.obj
 0002:00001ffc       ??_C@_0BF@INCNGIOM@sdk_eye_refract_vs20?$AA@ 1003affc     eye_refract_helper.obj
 0002:00002014       ??_C@_0M@MKLGMMMN@SDK_Eyeball?$AA@ 1003b014     eyeball.obj
 0002:00002020       ??_C@_0BF@EMKMPGEB@Help?5for?5SDK_EyeBall?$AA@ 1003b020     eyeball.obj
 0002:0000203c       ??_7CShader@SDK_Eyeball@@6B@ 1003b03c     eyeball.obj
 0002:0000208c       ??_C@_0BE@KJCKKNBG@models?1alyx?1pupil_l?$AA@ 1003b08c     eyeball.obj
 0002:000020a0       ??_C@_0BB@JAEODDPH@SDK_EyeGlint_dx9?$AA@ 1003b0a0     eyeglint_dx9.obj
 0002:000020b4       ??_C@_0BC@FNEFKAH@Help?5for?5EyeGlint?$AA@ 1003b0b4     eyeglint_dx9.obj
 0002:000020cc       ??_7CShader@SDK_EyeGlint_dx9@@6B@ 1003b0cc     eyeglint_dx9.obj
 0002:0000211c       ??_C@_0BC@JNBJEAGF@sdk_eyeglint_ps20?$AA@ 1003b11c     eyeglint_dx9.obj
 0002:00002130       ??_C@_0BD@GKIOIFLC@sdk_eyeglint_ps20b?$AA@ 1003b130     eyeglint_dx9.obj
 0002:00002144       ??_C@_0BC@BCFJLFMF@sdk_eyeglint_vs20?$AA@ 1003b144     eyeglint_dx9.obj
 0002:00002158       ??_C@_0N@PKIAEAKA@SDK_Eyes_dx8?$AA@ 1003b158     eyes.obj
 0002:00002168       ??_C@_08EJMBPFIB@SDK_eyes?$AA@ 1003b168     eyes.obj
 0002:0000217c       ??_7CShader@SDK_eyes@@6B@  1003b17c     eyes.obj
 0002:000021d4       ??_7CShader@SDK_Eyes_dx8@@6B@ 1003b1d4     eyes.obj
 0002:00002224       ??_C@_08LHCNKLFM@Eyes_dx6?$AA@ 1003b224     eyes.obj
 0002:00002230       ??_C@_0BG@FBKHINAL@models?1alyx?1eyeball_l?$AA@ 1003b230     eyes.obj
 0002:00002248       ??_C@_06JEPAJNLP@$GLINT?$AA@ 1003b248     eyes.obj
 0002:00002250       ??_C@_0O@JALOMKGL@glint?5texture?$AA@ 1003b250     eyes.obj
 0002:00002260       ??_C@_0BJ@DCDAPOKK@models?1humans?1male?1glint?$AA@ 1003b260     eyes.obj
 0002:0000227c       ??_C@_06EPPBBCGL@$EYEUP?$AA@ 1003b27c     eyes.obj
 0002:00002284       ??_C@_0BH@NMILGMFG@up?5vector?5for?5the?5eyes?$AA@ 1003b284     eyes.obj
 0002:0000229c       ??_C@_07BGPBNEGE@?$FL0?50?51?$FN?$AA@ 1003b29c     eyes.obj
 0002:000022a4       ??_C@_09KJBDDCFD@?$FL0?51?50?50?$FN?$AA@ 1003b2a4     eyes.obj
 0002:000022b0       ??_C@_07JMIGPHJB@$GLINTU?$AA@ 1003b2b0     eyes.obj
 0002:000022b8       ??_C@_0CC@MINLONJO@U?5projection?5vector?5for?5the?5glin@ 1003b2b8     eyes.obj
 0002:000022dc       ??_C@_07LHKLKEFC@$GLINTV?$AA@ 1003b2dc     eyes.obj
 0002:000022e4       ??_C@_0CC@KFFNBOME@V?5projection?5vector?5for?5the?5glin@ 1003b2e4     eyes.obj
 0002:00002308       ??_C@_0O@DFHJIDBJ@Iris?5dilation?$AA@ 1003b308     eyes.obj
 0002:00002318       ??_C@_0BJ@LDFGMAKO@sdk_eyes_flashlight_ps11?$AA@ 1003b318     eyes_dx8_dx9_helper.obj
 0002:00002334       ??_C@_0BJ@DMBGDFAO@sdk_eyes_flashlight_vs11?$AA@ 1003b334     eyes_dx8_dx9_helper.obj
 0002:00002350       ??_C@_0BJ@KJMJCFIB@sdk_eyes_flashlight_ps30?$AA@ 1003b350     eyes_dx8_dx9_helper.obj
 0002:0000236c       ??_C@_0BJ@CGIJNACB@sdk_eyes_flashlight_vs30?$AA@ 1003b36c     eyes_dx8_dx9_helper.obj
 0002:00002388       ??_C@_0BJ@KIALEPLG@sdk_eyes_flashlight_ps20?$AA@ 1003b388     eyes_dx8_dx9_helper.obj
 0002:000023a4       ??_C@_0BK@HFGBBEND@sdk_eyes_flashlight_ps20b?$AA@ 1003b3a4     eyes_dx8_dx9_helper.obj
 0002:000023c0       ??_C@_0BJ@CHELLKBG@sdk_eyes_flashlight_vs20?$AA@ 1003b3c0     eyes_dx8_dx9_helper.obj
 0002:000023dc       __real@3c23d70a            1003b3dc     eyes_dx8_dx9_helper.obj
 0002:000023e0       ??_C@_0BB@EEJJPJAD@Eyes_Overbright2?$AA@ 1003b3e0     eyes_dx8_dx9_helper.obj
 0002:000023f4       ??_C@_04PFPHBDDD@Eyes?$AA@ 1003b3f4     eyes_dx8_dx9_helper.obj
 0002:000023fc       ??_C@_0O@GOCIKHPM@sdk_eyes_ps30?$AA@ 1003b3fc     eyes_dx8_dx9_helper.obj
 0002:0000240c       ??_C@_0O@OBGIFCFM@sdk_eyes_vs30?$AA@ 1003b40c     eyes_dx8_dx9_helper.obj
 0002:0000241c       ??_C@_0O@GPOKMNML@sdk_eyes_ps20?$AA@ 1003b41c     eyes_dx8_dx9_helper.obj
 0002:0000242c       ??_C@_0P@FLBCPINA@sdk_eyes_ps20b?$AA@ 1003b42c     eyes_dx8_dx9_helper.obj
 0002:0000243c       ??_C@_0O@OAKKDIGL@sdk_eyes_vs20?$AA@ 1003b43c     eyes_dx8_dx9_helper.obj
 0002:0000244c       ??_C@_0BG@PPOAPOAB@r_flashlight_version2?$AA@ 1003b44c     eyes_dx8_dx9_helper.obj
 0002:00002464       ??_C@_0N@ODJLHBOB@SDK_Eyes_dx9?$AA@ 1003b464     eyes_dx9.obj
 0002:0000247c       ??_7CShader@SDK_Eyes_dx9@@6B@ 1003b47c     eyes_dx9.obj
 0002:00002518       ??_C@_0M@DLHJBNEJ@env_cubemap?$AA@ 1003b518     flesh_interior_blended_pass_helper.obj
 0002:00002524       ??_C@_0CF@OOMMDNKE@sdk_flesh_interior_blended_pass_@ 1003b524     flesh_interior_blended_pass_helper.obj
 0002:0000254c       ??_C@_0CG@IGJOKCOJ@sdk_flesh_interior_blended_pass_@ 1003b54c     flesh_interior_blended_pass_helper.obj
 0002:00002574       ??_C@_0CF@GBIMMIAE@sdk_flesh_interior_blended_pass_@ 1003b574     flesh_interior_blended_pass_helper.obj
 0002:0000259c       ??_C@_0BN@JMIJFGPF@SDK_LightmappedGeneric_Decal?$AA@ 1003b59c     lightmappedgeneric_decal.obj
 0002:000025bc       ??_C@_0CG@GGPFNOEN@Help?5for?5SDK_LightmappedGeneric_@ 1003b5bc     lightmappedgeneric_decal.obj
 0002:0000260c       ??_7CShader@SDK_LightmappedGeneric_Decal@@6B@ 1003b60c     lightmappedgeneric_decal.obj
 0002:0000265c       __real@3eaaaaaa            1003b65c     lightmappedgeneric_decal.obj
 0002:00002660       ??_C@_0BL@GDGJJNCK@SDK_LightmappedGeneric_DX9?$AA@ 1003b660     lightmappedgeneric_dx9.obj
 0002:0000267c       ??_C@_0CA@KBJDPONC@Help?5for?5SDK_LightmappedGeneric?$AA@ 1003b67c     lightmappedgeneric_dx9.obj
 0002:000026a4       ??_7CShader@SDK_LightmappedGeneric_DX9@@6B@ 1003b6a4     lightmappedgeneric_dx9.obj
 0002:000026f4       ??_C@_0BL@HKHCKMGL@SDK_LightmappedGeneric_DX8?$AA@ 1003b6f4     lightmappedgeneric_dx9.obj
 0002:00002710       ??_C@_07PDIMCNBA@$ALBEDO?$AA@ 1003b710     lightmappedgeneric_dx9.obj
 0002:00002718       ??_C@_0CN@IPOHFOBA@albedo?5?$CIBase?5texture?5with?5no?5bak@ 1003b718     lightmappedgeneric_dx9.obj
 0002:00002748       ??_C@_0P@LDIFNAJJ@$SELFILLUMTINT?$AA@ 1003b748     lightmappedgeneric_dx9.obj
 0002:00002758       ??_C@_07MFIMGGJK@$DETAIL?$AA@ 1003b758     lightmappedgeneric_dx9.obj
 0002:00002760       ??_C@_0P@EKLAIDLA@detail?5texture?$AA@ 1003b760     lightmappedgeneric_dx9.obj
 0002:00002770       ??_C@_0BC@BDKMNNCO@shadertest?1detail?$AA@ 1003b770     lightmappedgeneric_dx9.obj
 0002:00002784       ??_C@_0N@JGGPLJNA@$DETAILFRAME?$AA@ 1003b784     lightmappedgeneric_dx9.obj
 0002:00002794       ??_C@_0BJ@DLGINJPH@frame?5number?5for?5$detail?$AA@ 1003b794     lightmappedgeneric_dx9.obj
 0002:000027b0       ??_C@_0N@JJDGPOPN@$DETAILSCALE?$AA@ 1003b7b0     lightmappedgeneric_dx9.obj
 0002:000027c0       ??_C@_0BM@FAAMAFEB@scale?5of?5the?5detail?5texture?$AA@ 1003b7c0     lightmappedgeneric_dx9.obj
 0002:000027dc       ??_C@_01FAMBOPH@4?$AA@     1003b7dc     lightmappedgeneric_dx9.obj
 0002:000027e0       ??_C@_0M@BLOPGHNE@$ENVMAPMASK?$AA@ 1003b7e0     lightmappedgeneric_dx9.obj
 0002:000027ec       ??_C@_0M@KFABDOFN@envmap?5mask?$AA@ 1003b7ec     lightmappedgeneric_dx9.obj
 0002:000027f8       ??_C@_0BO@JLAFIMAN@shadertest?1shadertest_envmask?$AA@ 1003b7f8     lightmappedgeneric_dx9.obj
 0002:00002818       ??_C@_0BB@JMDKKFHF@$ENVMAPMASKFRAME?$AA@ 1003b818     lightmappedgeneric_dx9.obj
 0002:0000282c       ??_C@_0BF@KGFFEKOJ@$ENVMAPMASKTRANSFORM?$AA@ 1003b82c     lightmappedgeneric_dx9.obj
 0002:00002844       ??_C@_0BP@MBHBPLHE@$envmapmask?5texcoord?5transform?$AA@ 1003b844     lightmappedgeneric_dx9.obj
 0002:00002864       ??_C@_08DHCFFI@bump?5map?$AA@ 1003b864     lightmappedgeneric_dx9.obj
 0002:00002870       ??_C@_0BA@LCJECANF@$BUMPTRANSFORM2?$AA@ 1003b870     lightmappedgeneric_dx9.obj
 0002:00002880       ??_C@_0BD@DOFMMDCK@$FRESNELREFLECTION?$AA@ 1003b880     lightmappedgeneric_dx9.obj
 0002:00002894       ??_C@_0CH@BLCJOBIJ@0?40?5?$DN?$DN?5no?5fresnel?0?51?40?5?$DN?$DN?5full?5f@ 1003b894     lightmappedgeneric_dx9.obj
 0002:000028bc       ??_C@_0BH@CHGMPLOF@$NODIFFUSEBUMPLIGHTING?$AA@ 1003b8bc     lightmappedgeneric_dx9.obj
 0002:000028d4       ??_C@_0DN@HDBADNAJ@0?5?$DN?$DN?5Use?5diffuse?5bump?5lighting?0?5@ 1003b8d4     lightmappedgeneric_dx9.obj
 0002:00002914       ??_C@_09JMDECHCP@$BUMPMAP2?$AA@ 1003b914     lightmappedgeneric_dx9.obj
 0002:00002920       ??_C@_0CB@DPFEIDLH@models?1shadertest?1shader3_normal@ 1003b920     lightmappedgeneric_dx9.obj
 0002:00002944       ??_C@_0M@MFKOCAFP@$BUMPFRAME2?$AA@ 1003b944     lightmappedgeneric_dx9.obj
 0002:00002950       ??_C@_0O@NGGEHEEP@$BASETEXTURE2?$AA@ 1003b950     lightmappedgeneric_dx9.obj
 0002:00002960       ??_C@_0BA@BILJLBMD@Blended?5texture?$AA@ 1003b960     lightmappedgeneric_dx9.obj
 0002:00002970       ??_C@_0BO@IMIMBEJF@shadertest?1lightmappedtexture?$AA@ 1003b970     lightmappedgeneric_dx9.obj
 0002:00002990       ??_C@_07BGLAEPMG@$FRAME2?$AA@ 1003b990     lightmappedgeneric_dx9.obj
 0002:00002998       ??_C@_0BP@IHHBIFML@frame?5number?5for?5$basetexture2?$AA@ 1003b998     lightmappedgeneric_dx9.obj
 0002:000029b8       ??_C@_0BF@JNPIKMOF@$BASETEXTURENOENVMAP?$AA@ 1003b9b8     lightmappedgeneric_dx9.obj
 0002:000029d0       ??_C@_0BG@KNAINKPC@$BASETEXTURE2NOENVMAP?$AA@ 1003b9d0     lightmappedgeneric_dx9.obj
 0002:000029e8       ??_C@_0CA@MPCIONII@$DETAIL_ALPHA_MASK_BASE_TEXTURE?$AA@ 1003b9e8     lightmappedgeneric_dx9.obj
 0002:00002a08       ??_C@_0HJ@KFMNGBFG@If?5this?5is?51?0?5then?5when?5detail?5a@ 1003ba08     lightmappedgeneric_dx9.obj
 0002:00002a84       ??_C@_0BN@GMCAEIGD@light?5munging?5lookup?5texture?$AA@ 1003ba84     lightmappedgeneric_dx9.obj
 0002:00002aa4       ??_C@_0BG@IMDJIJHP@$BLENDMODULATETEXTURE?$AA@ 1003baa4     lightmappedgeneric_dx9.obj
 0002:00002abc       ??_C@_0DA@LMGJHLKK@texture?5to?5use?5r?1g?5channels?5for?5@ 1003babc     lightmappedgeneric_dx9.obj
 0002:00002aec       ??_C@_0BA@NMJCJLEH@$MASKEDBLENDING?$AA@ 1003baec     lightmappedgeneric_dx9.obj
 0002:00002b00       ??_C@_0FK@FOENDJFI@blend?5using?5texture?5with?5no?5vert@ 1003bb00     lightmappedgeneric_dx9.obj
 0002:00002b5c       ??_C@_0BE@FNNNKFKP@$BLENDMASKTRANSFORM?$AA@ 1003bb5c     lightmappedgeneric_dx9.obj
 0002:00002b70       ??_C@_0CJ@COBOOGPN@$blendmodulatetexture?5texcoord?5t@ 1003bb70     lightmappedgeneric_dx9.obj
 0002:00002b9c       ??_C@_0BB@JNEMIJIL@$DETAILBLENDMODE?$AA@ 1003bb9c     lightmappedgeneric_dx9.obj
 0002:00002bb0       ??_C@_0HA@LHKGPABJ@mode?5for?5combining?5detail?5textur@ 1003bbb0     lightmappedgeneric_dx9.obj
 0002:00002c20       ??_C@_0BD@NNNAMLAD@$DETAILBLENDFACTOR?$AA@ 1003bc20     lightmappedgeneric_dx9.obj
 0002:00002c34       ??_C@_0CB@EFGEJEJG@blend?5amount?5for?5detail?5texture?4@ 1003bc34     lightmappedgeneric_dx9.obj
 0002:00002c58       ??_C@_0M@GNMDBBAM@$DETAILTINT?$AA@ 1003bc58     lightmappedgeneric_dx9.obj
 0002:00002c64       ??_C@_0BE@GECJOJDG@detail?5texture?5tint?$AA@ 1003bc64     lightmappedgeneric_dx9.obj
 0002:00002c78       ??_C@_07IHJMPEHP@$ALPHA2?$AA@ 1003bc78     lightmappedgeneric_dx9.obj
 0002:00002c80       ??_C@_09GAIPFLMJ@$BUMPMASK?$AA@ 1003bc80     lightmappedgeneric_dx9.obj
 0002:00002c8c       ??_C@_0BA@OHCGJFMP@$SEAMLESS_SCALE?$AA@ 1003bc8c     lightmappedgeneric_dx9.obj
 0002:00002ca0       ??_C@_0EI@IPGAIBPN@the?5scale?5for?5the?5seamless?5mappi@ 1003bca0     lightmappedgeneric_dx9.obj
 0002:00002ce8       ??_C@_07GDNPHCDH@$SSBUMP?$AA@ 1003bce8     lightmappedgeneric_dx9.obj
 0002:00002cf0       ??_C@_0BE@GEDBJHGM@$ALPHATESTREFERENCE?$AA@ 1003bcf0     lightmappedgeneric_dx9.obj
 0002:00002d04       ??_C@_08CBCLEDJG@$RIPINFO?$AA@ 1003bd04     lightmappedgeneric_dx9.obj
 0002:00002d10       ??_C@_0CC@CBENGADG@?$FL0?50?50?50?50?50?50?50?50?50?50?50?50?50?50?50@ 1003bd10     lightmappedgeneric_dx9.obj
 0002:00002d34       ??_C@_09MCKCGJJG@$CULLMODE?$AA@ 1003bd34     lightmappedgeneric_dx9.obj
 0002:00002d44       ??_7CBasePerMaterialContextData@@6B@ 1003bd44     lightmappedgeneric_dx9_helper.obj
 0002:00002d48       ??_C@_0EL@FAIMJBAO@env_cubemap?5used?5on?5world?5geomet@ 1003bd48     lightmappedgeneric_dx9_helper.obj
 0002:00002d98       ??_7CLightmappedGeneric_DX9_Context@@6B@ 1003bd98     lightmappedgeneric_dx9_helper.obj
 0002:00002d9c       ??_C@_0BM@GDHCLPBE@sdk_lightmappedgeneric_ps20?$AA@ 1003bd9c     lightmappedgeneric_dx9_helper.obj
 0002:00002db8       ??_C@_0BN@ENHCKPOH@sdk_lightmappedgeneric_ps20b?$AA@ 1003bdb8     lightmappedgeneric_dx9_helper.obj
 0002:00002dd8       ??_C@_0BM@OMDCEKLE@sdk_lightmappedgeneric_vs20?$AA@ 1003bdd8     lightmappedgeneric_dx9_helper.obj
 0002:00002df8       ??_C@_0GN@HHGOFOGC@LightmappedGeneric?3?5Primary?5and?5@ 1003bdf8     lightmappedgeneric_dx9_helper.obj
 0002:00002e68       ??_C@_0BG@KPCPCFNI@mat_disable_lightwarp?$AA@ 1003be68     lightmappedgeneric_dx9_helper.obj
 0002:00002e80       ??_C@_0BL@BEGFLJFL@mat_disable_fancy_blending?$AA@ 1003be80     lightmappedgeneric_dx9_helper.obj
 0002:00002e9c       ??_C@_0BP@PHMDEBGA@SDK_LightmappedReflective_DX90?$AA@ 1003be9c     lightmappedreflective.obj
 0002:00002ebc       ??_C@_0CA@PJILMIJK@Help?5for?5Lightmapped?5Reflective?$AA@ 1003bebc     lightmappedreflective.obj
 0002:00002edc       ??_C@_0BK@CKHLOCG@SDK_LightmappedReflective?$AA@ 1003bedc     lightmappedreflective.obj
 0002:00002efc       ??_7CShader@SDK_LightmappedReflective@@6B@ 1003befc     lightmappedreflective.obj
 0002:00002f54       ??_7CShader@SDK_LightmappedReflective_DX90@@6B@ 1003bf54     lightmappedreflective.obj
 0002:00002fa4       __real@40a00000            1003bfa4     lightmappedreflective.obj
 0002:00002fa8       __real@3eaaaaab            1003bfa8     lightmappedreflective.obj
 0002:00002fac       ??_C@_0BP@EDGGMNAB@sdk_lightmappedreflective_ps20?$AA@ 1003bfac     lightmappedreflective.obj
 0002:00002fcc       ??_C@_0CA@CAIPFPHO@sdk_lightmappedreflective_ps20b?$AA@ 1003bfcc     lightmappedreflective.obj
 0002:00002fec       ??_C@_0BP@MMCGDIKB@sdk_lightmappedreflective_vs20?$AA@ 1003bfec     lightmappedreflective.obj
 0002:0000300c       ??_C@_0BA@EHGGFFAB@$REFRACTTEXTURE?$AA@ 1003c00c     lightmappedreflective.obj
 0002:0000301c       ??_C@_0BE@HKJHBLNC@_rt_WaterRefraction?$AA@ 1003c01c     lightmappedreflective.obj
 0002:00003030       ??_C@_0BA@BCJGBIGB@$REFLECTTEXTURE?$AA@ 1003c030     lightmappedreflective.obj
 0002:00003040       ??_C@_0BE@OHOJBMNI@_rt_WaterReflection?$AA@ 1003c040     lightmappedreflective.obj
 0002:00003054       ??_C@_0P@NCKHHCKC@$REFLECTAMOUNT?$AA@ 1003c054     lightmappedreflective.obj
 0002:00003064       ??_C@_03LNMAPFD@0?48?$AA@  1003c064     lightmappedreflective.obj
 0002:00003068       ??_C@_0N@FDMMMBHO@$REFLECTTINT?$AA@ 1003c068     lightmappedreflective.obj
 0002:00003078       ??_C@_0BA@DKEAKDHJ@reflection?5tint?$AA@ 1003c078     lightmappedreflective.obj
 0002:00003088       ??_C@_0BB@HNINMBFP@dev?1water_normal?$AA@ 1003c088     lightmappedreflective.obj
 0002:0000309c       ??_C@_0O@EIDFPIGA@$FRESNELPOWER?$AA@ 1003c09c     lightmappedreflective.obj
 0002:000030ac       ??_C@_01BMBHCPLG@5?$AA@    1003c0ac     lightmappedreflective.obj
 0002:000030b0       ??_C@_0BB@MNOJPEFJ@$MAXREFLECTIVITY?$AA@ 1003c0b0     lightmappedreflective.obj
 0002:000030c4       ??_C@_0BB@JMBAEPAE@$MINREFLECTIVITY?$AA@ 1003c0c4     lightmappedreflective.obj
 0002:000030d8       ??_C@_0BK@EHBFGJIA@SDK_LightmappedTwoTexture?$AA@ 1003c0d8     lightmappedtwotexture.obj
 0002:000030f4       ??_C@_0BP@ILLGCCFC@Help?5for?5LightmappedTwoTexture?$AA@ 1003c0f4     lightmappedtwotexture.obj
 0002:0000311c       ??_7CShader@SDK_LightmappedTwoTexture@@6B@ 1003c11c     lightmappedtwotexture.obj
 0002:0000316c       ??_C@_0BK@DHMMFFGM@LightmappedTwoTexture_DX5?$AA@ 1003c16c     lightmappedtwotexture.obj
 0002:00003188       ??_C@_06EENFNEPD@detail?$AA@ 1003c188     lightmappedtwotexture.obj
 0002:00003190       ??_C@_0BC@NMBBOELC@shadertest?1Detail?$AA@ 1003c190     lightmappedtwotexture.obj
 0002:000031a4       ??_C@_0N@MPCOKIDH@detail?5scale?$AA@ 1003c1a4     lightmappedtwotexture.obj
 0002:000031b4       ??_C@_0BK@BMHIEFC@Frame?5for?5animated?5envmap?$AA@ 1003c1b4     lightmappedtwotexture.obj
 0002:000031d0       ??_C@_0BB@JDGDOCFI@$ENVMAPMASKSCALE?$AA@ 1003c1d0     lightmappedtwotexture.obj
 0002:000031e4       ??_C@_0BC@IPEKJDIO@envmap?5mask?5scale?$AA@ 1003c1e4     lightmappedtwotexture.obj
 0002:000031f8       ??_C@_0BB@IEANGMKL@SDK_Refract_DX90?$AA@ 1003c1f8     refract.obj
 0002:0000320c       ??_C@_0BB@PFOAINOC@Help?5for?5Refract?$AA@ 1003c20c     refract.obj
 0002:00003220       ??_C@_0M@HDIFDIAN@SDK_Refract?$AA@ 1003c220     refract.obj
 0002:00003234       ??_7CShader@SDK_Refract@@6B@ 1003c234     refract.obj
 0002:0000328c       ??_7CShader@SDK_Refract_DX90@@6B@ 1003c28c     refract.obj
 0002:000032dc       ??_C@_0N@MFAGAODL@Refract_DX80?$AA@ 1003c2dc     refract.obj
 0002:000032ec       ??_C@_0M@CEPGEKE@$NORMALMAP2?$AA@ 1003c2ec     refract.obj
 0002:000032f8       ??_C@_0BM@GDOOPOKE@frame?5number?5for?5$normalmap?$AA@ 1003c2f8     refract.obj
 0002:00003314       ??_C@_0BO@HIOGKNEB@$normalmap?5texcoord?5transform?$AA@ 1003c314     refract.obj
 0002:00003334       ??_C@_0CG@HLFNGPPG@0?0?51?0?5or?52?5for?5how?5much?5blur?5you@ 1003c334     refract.obj
 0002:0000335c       ??_C@_0BF@PFFOJLAF@$FADEOUTONSILHOUETTE?$AA@ 1003c35c     refract.obj
 0002:00003374       ??_C@_0DP@CKAJGPEM@0?5for?5no?5fade?5out?5on?5silhouette?0@ 1003c374     refract.obj
 0002:000033b4       ??_C@_0BE@CLJDJENK@$REFRACTTINTTEXTURE?$AA@ 1003c3b4     refract.obj
 0002:000033c8       ??_C@_0BJ@EHMHNDKH@models?1shadertest?1shield?$AA@ 1003c3c8     refract.obj
 0002:000033e4       ??_C@_0BJ@DFHEAFJK@$REFRACTTINTTEXTUREFRAME?$AA@ 1003c3e4     refract.obj
 0002:00003400       ??_C@_0BM@EEHCEKC@1?40?5?$DN?$DN?5mirror?0?50?40?5?$DN?$DN?5water?$AA@ 1003c400     refract.obj
 0002:0000341c       ??_C@_09DMJDBKAK@$NOWRITEZ?$AA@ 1003c41c     refract.obj
 0002:00003428       ??_C@_0BN@BBPFOJAA@0?5?$DN?$DN?5write?5z?0?51?5?$DN?5no?5write?5z?$AA@ 1003c428     refract.obj
 0002:00003448       ??_C@_07NHNLCOEH@$MASKED?$AA@ 1003c448     refract.obj
 0002:00003450       ??_C@_0BG@KOFKJFEI@mask?5using?5dest?5alpha?$AA@ 1003c450     refract.obj
 0002:00003468       ??_C@_0BF@KFONOPBN@$VERTEXCOLORMODULATE?$AA@ 1003c468     refract.obj
 0002:00003480       ??_C@_0EP@LGIFCOCH@Use?5the?5vertex?5color?5to?5effect?5r@ 1003c480     refract.obj
 0002:000034d0       ??_C@_0BB@KJONIJNP@sdk_refract_ps20?$AA@ 1003c4d0     refract_dx9_helper.obj
 0002:000034e4       ??_C@_0BC@EBAOCLOJ@sdk_refract_ps20b?$AA@ 1003c4e4     refract_dx9_helper.obj
 0002:000034f8       ??_C@_0BB@CGKNHMHP@sdk_refract_vs20?$AA@ 1003c4f8     refract_dx9_helper.obj
 0002:00003510       ??_C@_0GC@KMHOMGCM@Refract?3?5Primary?5and?5Secondary?5n@ 1003c510     refract_dx9_helper.obj
 0002:00003574       ??_C@_0BM@BDCEEILB@SDK_screenspace_general_dx9?$AA@ 1003c574     screenspace_general.obj
 0002:00003590       ??_C@_0BN@DFNCKIGD@Help?5for?5screenspace_general?$AA@ 1003c590     screenspace_general.obj
 0002:000035b0       ??_C@_0BI@DIOFAMK@SDK_screenspace_general?$AA@ 1003c5b0     screenspace_general.obj
 0002:000035cc       ??_7CShader@SDK_screenspace_general@@6B@ 1003c5cc     screenspace_general.obj
 0002:00003624       ??_7CShader@SDK_screenspace_general_dx9@@6B@ 1003c624     screenspace_general.obj
 0002:00003674       ??_C@_0BI@PMFHOBDB@screenspace_general_dx8?$AA@ 1003c674     screenspace_general.obj
 0002:0000368c       ??_C@_05MLBEAMMO@_ps20?$AA@ 1003c68c     screenspace_general.obj
 0002:00003694       ??_C@_05CIPKHNJF@$C0_X?$AA@ 1003c694     screenspace_general.obj
 0002:0000369c       ??_C@_05DBOBEMNE@$C0_Y?$AA@ 1003c69c     screenspace_general.obj
 0002:000036a4       ??_C@_05BKMMBPBH@$C0_Z?$AA@ 1003c6a4     screenspace_general.obj
 0002:000036ac       ??_C@_05KPGCGBFK@$C0_W?$AA@ 1003c6ac     screenspace_general.obj
 0002:000036b4       ??_C@_05JAEGBKPA@$C1_X?$AA@ 1003c6b4     screenspace_general.obj
 0002:000036bc       ??_C@_05IJFNCLLB@$C1_Y?$AA@ 1003c6bc     screenspace_general.obj
 0002:000036c4       ??_C@_05KCHAHIHC@$C1_Z?$AA@ 1003c6c4     screenspace_general.obj
 0002:000036cc       ??_C@_05BHNOAGDP@$C1_W?$AA@ 1003c6cc     screenspace_general.obj
 0002:000036d4       ??_C@_05ICPDLFBO@$C2_X?$AA@ 1003c6d4     screenspace_general.obj
 0002:000036dc       ??_C@_05JLOIIEFP@$C2_Y?$AA@ 1003c6dc     screenspace_general.obj
 0002:000036e4       ??_C@_05LAMFNHJM@$C2_Z?$AA@ 1003c6e4     screenspace_general.obj
 0002:000036ec       ??_C@_05FGLKJNB@$C2_W?$AA@ 1003c6ec     screenspace_general.obj
 0002:000036f4       ??_C@_05DKEPNCHL@$C3_X?$AA@ 1003c6f4     screenspace_general.obj
 0002:000036fc       ??_C@_05CDFEODDK@$C3_Y?$AA@ 1003c6fc     screenspace_general.obj
 0002:00003704       ??_C@_05IHJLAPJ@$C3_Z?$AA@ 1003c704     screenspace_general.obj
 0002:0000370c       ??_C@_05LNNHMOLE@$C3_W?$AA@ 1003c70c     screenspace_general.obj
 0002:00003714       ??_C@_0L@JBNENMGE@$PIXSHADER?$AA@ 1003c714     screenspace_general.obj
 0002:00003720       ??_C@_0CA@IKJIBMEI@Name?5of?5the?5pixel?5shader?5to?5use?$AA@ 1003c720     screenspace_general.obj
 0002:00003740       ??_C@_0BG@PIDMKBCN@$DISABLE_COLOR_WRITES?$AA@ 1003c740     screenspace_general.obj
 0002:00003758       ??_C@_0N@JMCGLDDC@$ALPHATESTED?$AA@ 1003c758     screenspace_general.obj
 0002:00003768       ??_C@_09LCNOMKOK@$TEXTURE1?$AA@ 1003c768     screenspace_general.obj
 0002:00003774       ??_C@_09JJPDJJCJ@$TEXTURE2?$AA@ 1003c774     screenspace_general.obj
 0002:00003780       ??_C@_09IAOIKIGI@$TEXTURE3?$AA@ 1003c780     screenspace_general.obj
 0002:0000378c       ??_C@_0BI@KOAHMGBM@$LINEARREAD_BASETEXTURE?$AA@ 1003c78c     screenspace_general.obj
 0002:000037a4       ??_C@_0BF@OJJMLBDA@$LINEARREAD_TEXTURE1?$AA@ 1003c7a4     screenspace_general.obj
 0002:000037bc       ??_C@_0BF@MCLBOCPD@$LINEARREAD_TEXTURE2?$AA@ 1003c7bc     screenspace_general.obj
 0002:000037d4       ??_C@_0BF@NLKKNDLC@$LINEARREAD_TEXTURE3?$AA@ 1003c7d4     screenspace_general.obj
 0002:000037ec       ??_C@_0N@NNEIAMM@$LINEARWRITE?$AA@ 1003c7ec     screenspace_general.obj
 0002:000037fc       ??_C@_0BA@PKOHJGON@$X360APPCHOOSER?$AA@ 1003c7fc     screenspace_general.obj
 0002:0000380c       ??_C@_0CC@KCFCHONL@Needed?5for?5movies?5in?5360?5launche@ 1003c80c     screenspace_general.obj
 0002:00003830       ??_C@_0L@MBMLDGMP@r_rimlight?$AA@ 1003c830     skin_dx9_helper.obj
 0002:0000383c       ??_C@_0P@LGGAGKAF@SDK_Spritecard?$AA@ 1003c83c     spritecard.obj
 0002:0000384c       ??_C@_0BI@HPPCMNDC@Help?5for?5SDK_Spritecard?$AA@ 1003c84c     spritecard.obj
 0002:00003864       ??_C@_0BJ@JMOFDIIK@?9softparticlesdefaultoff?$AA@ 1003c864     spritecard.obj
 0002:00003884       ??_7CShader@SDK_Spritecard@@6B@ 1003c884     spritecard.obj
 0002:000038d4       __real@42480000            1003c8d4     spritecard.obj
 0002:000038d8       __real@41200000            1003c8d8     spritecard.obj
 0002:000038dc       __real@41a00000            1003c8dc     spritecard.obj
 0002:000038e0       __real@43c80000            1003c8e0     spritecard.obj
 0002:000038e4       __real@47c35000            1003c8e4     spritecard.obj
 0002:000038e8       ??_C@_0BD@GMJFBFPK@SDK_SpriteCard_DX8?$AA@ 1003c8e8     spritecard.obj
 0002:000038fc       ??_C@_0BE@JFBLONMJ@sdk_spritecard_ps20?$AA@ 1003c8fc     spritecard.obj
 0002:00003910       ??_C@_0BF@LFOGGINM@sdk_spritecard_ps20b?$AA@ 1003c910     spritecard.obj
 0002:00003928       ??_C@_0BE@BKFLBIGJ@sdk_spritecard_vs20?$AA@ 1003c928     spritecard.obj
 0002:0000393c       ??_C@_0BE@FBFNHEBI@sdk_splinecard_vs20?$AA@ 1003c93c     spritecard.obj
 0002:00003950       ??_C@_0M@MIINGECB@$DEPTHBLEND?$AA@ 1003c950     spritecard.obj
 0002:0000395c       ??_C@_0CA@OPBPIPDL@fade?5at?5intersection?5boundaries?$AA@ 1003c95c     spritecard.obj
 0002:0000397c       ??_C@_0BB@OAEEBLAJ@$DEPTHBLENDSCALE?$AA@ 1003c97c     spritecard.obj
 0002:00003990       ??_C@_0EF@FKEFBLKD@Amplify?5or?5reduce?5DEPTHBLEND?5fad@ 1003c990     spritecard.obj
 0002:000039d8       ??_C@_04ENKCJKKM@50?40?$AA@ 1003c9d8     spritecard.obj
 0002:000039e0       ??_C@_0N@GPJKMCA@$ORIENTATION?$AA@ 1003c9e0     spritecard.obj
 0002:000039f0       ??_C@_0ED@HJIEGBPB@0?5?$DN?5always?5face?5camera?0?51?5?$DN?5rota@ 1003c9f0     spritecard.obj
 0002:00003a34       ??_C@_0BB@NPNHBPFM@$ADDBASETEXTURE2?$AA@ 1003ca34     spritecard.obj
 0002:00003a48       ??_C@_0CN@EBJMOFIK@amount?5to?5blend?5second?5texture?5i@ 1003ca48     spritecard.obj
 0002:00003a78       ??_C@_0BC@NCGDDDMN@$OVERBRIGHTFACTOR?$AA@ 1003ca78     spritecard.obj
 0002:00003a8c       ??_C@_0DA@IIFLGAOG@overbright?5factor?5for?5texture?4?5F@ 1003ca8c     spritecard.obj
 0002:00003abc       ??_C@_0O@FHGJDMEI@$DUALSEQUENCE?$AA@ 1003cabc     spritecard.obj
 0002:00003acc       ??_C@_0CH@BBGFLONM@blend?5two?5separate?5animated?5sequ@ 1003cacc     spritecard.obj
 0002:00003af4       ??_C@_0BF@CBIFLLPL@$SEQUENCE_BLEND_MODE?$AA@ 1003caf4     spritecard.obj
 0002:00003b10       ??_C@_0IG@DMJDNDFJ@defines?5the?5blend?5mode?5between?5t@ 1003cb10     spritecard.obj
 0002:00003b98       ??_C@_0BD@CFNMMLKB@$MAXLUMFRAMEBLEND1?$AA@ 1003cb98     spritecard.obj
 0002:00003bb0       ??_C@_0GM@OPLDKKAM@instead?5of?5blending?5between?5anim@ 1003cbb0     spritecard.obj
 0002:00003c1c       ??_C@_0BD@OPBJIGC@$MAXLUMFRAMEBLEND2?$AA@ 1003cc1c     spritecard.obj
 0002:00003c30       ??_C@_0GK@LNABAAMP@instead?5of?5blending?5between?5anim@ 1003cc30     spritecard.obj
 0002:00003c9c       ??_C@_0N@KJCIKNLJ@$RAMPTEXTURE?$AA@ 1003cc9c     spritecard.obj
 0002:00003cb0       ??_C@_0GF@CJIANGCP@if?5specified?0?5then?5the?5red?5value@ 1003ccb0     spritecard.obj
 0002:00003d18       ??_C@_0BB@HIGLPLKL@$ZOOMANIMATESEQ2?$AA@ 1003cd18     spritecard.obj
 0002:00003d30       ??_C@_0HH@CJEBEAGM@amount?5to?5gradually?5zoom?5between@ 1003cd30     spritecard.obj
 0002:00003da8       ??_C@_0BD@GHKPKLME@$EXTRACTGREENALPHA?$AA@ 1003cda8     spritecard.obj
 0002:00003dbc       ??_C@_0CP@GKIGPOMJ@grayscale?5data?5sitting?5in?5green?1@ 1003cdbc     spritecard.obj
 0002:00003dec       ??_C@_0O@OJOFBDBK@$ADDOVERBLEND?$AA@ 1003cdec     spritecard.obj
 0002:00003dfc       ??_C@_0BN@GKNMJNFM@use?5ONE?3INVSRCALPHA?5blending?$AA@ 1003cdfc     spritecard.obj
 0002:00003e1c       ??_C@_08LILGCKO@$ADDSELF?$AA@ 1003ce1c     spritecard.obj
 0002:00003e28       ??_C@_0CO@PKONBILC@amount?5of?5base?5texture?5to?5additi@ 1003ce28     spritecard.obj
 0002:00003e58       ??_C@_0N@MNOFLLCF@$BLENDFRAMES?$AA@ 1003ce58     spritecard.obj
 0002:00003e68       ??_C@_0DJ@FGNDAKOB@whether?5or?5not?5to?5smoothly?5blend@ 1003ce68     spritecard.obj
 0002:00003ea4       ??_C@_08OFDIAGPO@$MINSIZE?$AA@ 1003cea4     spritecard.obj
 0002:00003eb0       ??_C@_0CL@LOGEDLOD@minimum?5screen?5fractional?5size?5o@ 1003ceb0     spritecard.obj
 0002:00003edc       ??_C@_0P@FBMDGNMN@$STARTFADESIZE?$AA@ 1003cedc     spritecard.obj
 0002:00003eec       ??_C@_0DE@NCGCODPM@screen?5fractional?5size?5to?5start?5@ 1003ceec     spritecard.obj
 0002:00003f20       ??_C@_04LICCDMGM@10?40?$AA@ 1003cf20     spritecard.obj
 0002:00003f28       ??_C@_0N@OKAHANAM@$ENDFADESIZE?$AA@ 1003cf28     spritecard.obj
 0002:00003f38       ??_C@_0DF@GBMDFAJP@screen?5fractional?5size?5to?5finish@ 1003cf38     spritecard.obj
 0002:00003f70       ??_C@_04PPICEGLM@20?40?$AA@ 1003cf70     spritecard.obj
 0002:00003f78       ??_C@_08DFIKJBP@$MAXSIZE?$AA@ 1003cf78     spritecard.obj
 0002:00003f84       ??_C@_0CL@PAOMFOEJ@maximum?5screen?5fractional?5size?5o@ 1003cf84     spritecard.obj
 0002:00003fb0       ??_C@_0P@MJCFFAEL@$USEINSTANCING?$AA@ 1003cfb0     spritecard.obj
 0002:00003fc0       ??_C@_0EH@IDGDKGB@whether?5to?5use?5GPU?5vertex?5instan@ 1003cfc0     spritecard.obj
 0002:00004008       ??_C@_0M@BIKEOEIH@$SPLINETYPE?$AA@ 1003d008     spritecard.obj
 0002:00004014       ??_C@_0CF@OLKJKCIH@spline?5type?50?5?$DN?5none?0?5?51?$DNctamull@ 1003d014     spritecard.obj
 0002:0000403c       ??_C@_0N@EBIBMKLL@$MAXDISTANCE?$AA@ 1003d03c     spritecard.obj
 0002:0000404c       ??_C@_0CG@LNBGHACF@maximum?5distance?5to?5draw?5particl@ 1003d04c     spritecard.obj
 0002:00004074       ??_C@_08LFPHNDHM@100000?40?$AA@ 1003d074     spritecard.obj
 0002:00004080       ??_C@_0BB@EMJFCAHP@$FARFADEINTERVAL?$AA@ 1003d080     spritecard.obj
 0002:00004094       ??_C@_0DD@GDHCABME@interval?5over?5which?5to?5fade?5out?5@ 1003d094     spritecard.obj
 0002:000040c8       ??_C@_05GNEJAGNJ@400?40?$AA@ 1003d0c8     spritecard.obj
 0002:000040d0       ??_C@_0O@KCDDPJJE@SDK_Teeth_DX9?$AA@ 1003d0d0     teeth.obj
 0002:000040e0       ??_C@_0BH@DMLEEIOH@Help?5for?5SDK_Teeth_DX9?$AA@ 1003d0e0     teeth.obj
 0002:000040f8       ??_C@_09FIKLCLOC@SDK_Teeth?$AA@ 1003d0f8     teeth.obj
 0002:0000410c       ??_7CShader@SDK_Teeth@@6B@ 1003d10c     teeth.obj
 0002:00004164       ??_7CShader@SDK_Teeth_DX9@@6B@ 1003d164     teeth.obj
 0002:000041b4       ??_C@_09JNIPBPNN@Teeth_dx8?$AA@ 1003d1b4     teeth.obj
 0002:000041c0       ??_C@_0P@HGMAGDJM@sdk_teeth_ps30?$AA@ 1003d1c0     teeth.obj
 0002:000041d0       ??_C@_0P@PJIAJGDM@sdk_teeth_vs30?$AA@ 1003d1d0     teeth.obj
 0002:000041e0       ??_C@_0P@HHACAJKL@sdk_teeth_ps20?$AA@ 1003d1e0     teeth.obj
 0002:000041f0       ??_C@_0BA@BGLIHBEM@sdk_teeth_ps20b?$AA@ 1003d1f0     teeth.obj
 0002:00004200       ??_C@_0P@PIECPMAL@sdk_teeth_vs20?$AA@ 1003d200     teeth.obj
 0002:00004210       ??_C@_0BE@FKCFOLL@sdk_teeth_bump_ps30?$AA@ 1003d210     teeth.obj
 0002:00004224       ??_C@_0BE@IKOCKLBL@sdk_teeth_bump_vs30?$AA@ 1003d224     teeth.obj
 0002:00004238       ??_C@_0BE@EGADEIM@sdk_teeth_bump_ps20?$AA@ 1003d238     teeth.obj
 0002:0000424c       ??_C@_0BF@LDMBKGBK@sdk_teeth_bump_ps20b?$AA@ 1003d24c     teeth.obj
 0002:00004264       ??_C@_0BE@ILCAMBCM@sdk_teeth_bump_vs20?$AA@ 1003d264     teeth.obj
 0002:00004278       ??_C@_0BK@KGPJBEAP@sdk_teeth_flashlight_ps30?$AA@ 1003d278     teeth.obj
 0002:00004294       ??_C@_0BK@CJLJOBKP@sdk_teeth_flashlight_vs30?$AA@ 1003d294     teeth.obj
 0002:000042b0       ??_C@_0BK@KHDLHODI@sdk_teeth_flashlight_ps20?$AA@ 1003d2b0     teeth.obj
 0002:000042cc       ??_C@_0BL@HPGOIKMF@sdk_teeth_flashlight_ps20b?$AA@ 1003d2cc     teeth.obj
 0002:000042e8       ??_C@_0BK@CIHLILJI@sdk_teeth_flashlight_vs20?$AA@ 1003d2e8     teeth.obj
 0002:00004304       ??_C@_0N@LHKHHMLB@$ILLUMFACTOR?$AA@ 1003d304     teeth.obj
 0002:00004314       ??_C@_0CH@EMBLPCJG@Amount?5to?5darken?5or?5brighten?5the@ 1003d314     teeth.obj
 0002:0000433c       ??_C@_08IIKKADKE@$FORWARD?$AA@ 1003d33c     teeth.obj
 0002:00004348       ??_C@_0CM@OLHJKHPD@Forward?5direction?5vector?5for?5tee@ 1003d348     teeth.obj
 0002:00004374       ??_C@_07LBEELFOH@?$FL1?50?50?$FN?$AA@ 1003d374     teeth.obj
 0002:0000437c       ??_C@_0P@HAHIKBIH@$PHONGEXPONENT?$AA@ 1003d37c     teeth.obj
 0002:0000438c       ??_C@_0P@BAMNDABC@phong?5exponent?$AA@ 1003d38c     teeth.obj
 0002:0000439c       ??_C@_03GNABGMEE@100?$AA@  1003d39c     teeth.obj
 0002:000043a0       ??_C@_0BK@GFBIIJDP@is?5teeth?5in?5the?5ep1?5intro?$AA@ 1003d3a0     teeth.obj
 0002:000043bc       ??_C@_0BB@OOONKNEP@SDK_UnlitGeneric?$AA@ 1003d3bc     unlitgeneric_dx9.obj
 0002:000043d0       ??_C@_0BK@DGFIPCKC@Help?5for?5SDK_UnlitGeneric?$AA@ 1003d3d0     unlitgeneric_dx9.obj
 0002:000043f4       ??_7CShader@SDK_UnlitGeneric@@6B@ 1003d3f4     unlitgeneric_dx9.obj
 0002:00004444       ??_C@_03IMEEBDJM@0?47?$AA@ 1003d444     unlitgeneric_dx9.obj
 0002:00004448       ??_C@_0BB@BCIIJFHG@$VERTEXALPHATEST?$AA@ 1003d448     unlitgeneric_dx9.obj
 0002:0000445c       ??_C@_0P@OLCECCPP@$HDRCOLORSCALE?$AA@ 1003d45c     unlitgeneric_dx9.obj
 0002:0000446c       ??_C@_0BA@FFPLCMDB@hdr?5color?5scale?$AA@ 1003d46c     unlitgeneric_dx9.obj
 0002:0000447c       ??_C@_0CJ@NLGLKFMO@Phong?5exponent?5for?5local?5specula@ 1003d47c     unlitgeneric_dx9.obj
 0002:000044a8       ??_C@_03PENLHFGJ@5?40?$AA@ 1003d4a8     unlitgeneric_dx9.obj
 0002:000044ac       ??_C@_0L@HOLDHIG@$PHONGTINT?$AA@ 1003d4ac     unlitgeneric_dx9.obj
 0002:000044b8       ??_C@_0CF@GIJFHAEG@Phong?5tint?5for?5local?5specular?5li@ 1003d4b8     unlitgeneric_dx9.obj
 0002:000044e0       ??_C@_0BB@HBGCINHG@$PHONGALBEDOTINT?$AA@ 1003d4e0     unlitgeneric_dx9.obj
 0002:000044f4       ??_C@_0DK@BPOOLEG@Apply?5tint?5by?5albedo?5?$CIcontrolled@ 1003d4f4     unlitgeneric_dx9.obj
 0002:00004530       ??_C@_0BC@GJLNNPAI@$PHONGWARPTEXTURE?$AA@ 1003d530     unlitgeneric_dx9.obj
 0002:00004544       ??_C@_0BM@OLBAAKPN@2D?5map?5for?5warping?5specular?$AA@ 1003d544     unlitgeneric_dx9.obj
 0002:00004560       ??_C@_0BE@BGJDPBHP@$PHONGFRESNELRANGES?$AA@ 1003d560     unlitgeneric_dx9.obj
 0002:00004574       ??_C@_0CI@CENADAPE@Parameters?5for?5remapping?5fresnel@ 1003d574     unlitgeneric_dx9.obj
 0002:0000459c       ??_C@_0M@CJLCKGNL@?$FL0?5?50?45?5?51?$FN?$AA@ 1003d59c     unlitgeneric_dx9.obj
 0002:000045a8       ??_C@_0M@DNDHDALE@$PHONGBOOST?$AA@ 1003d5a8     unlitgeneric_dx9.obj
 0002:000045b8       ??_C@_0FM@IGFBGMLA@Phong?5overbrightening?5factor?5?$CIsp@ 1003d5b8     unlitgeneric_dx9.obj
 0002:00004614       ??_C@_0BG@MJJIOHNI@$PHONGEXPONENTTEXTURE?$AA@ 1003d614     unlitgeneric_dx9.obj
 0002:0000462c       ??_C@_0BD@EGMFCGDJ@Phong?5Exponent?5map?$AA@ 1003d62c     unlitgeneric_dx9.obj
 0002:00004640       ??_C@_06DLCHBHBC@$PHONG?$AA@ 1003d640     unlitgeneric_dx9.obj
 0002:00004648       ??_C@_0BH@LDCGEAIF@enables?5phong?5lighting?$AA@ 1003d648     unlitgeneric_dx9.obj
 0002:00004660       ??_C@_0BI@FPPPDPCK@$DETAILTEXTURETRANSFORM?$AA@ 1003d660     unlitgeneric_dx9.obj
 0002:00004678       ??_C@_0BL@NOGBPJNP@$detail?5texcoord?5transform?$AA@ 1003d678     unlitgeneric_dx9.obj
 0002:00004694       ??_C@_0P@MCGFDDDI@$SELFILLUMMASK?$AA@ 1003d694     unlitgeneric_dx9.obj
 0002:000046a8       ??_C@_0EL@ILCJJFMK@If?5we?5bind?5a?5texture?5here?0?5it?5ov@ 1003d6a8     unlitgeneric_dx9.obj
 0002:000046f4       ??_C@_0P@BIPCIINC@$DISTANCEALPHA?$AA@ 1003d6f4     unlitgeneric_dx9.obj
 0002:00004708       ??_C@_0EA@LANEMFAI@Use?5distance?9coded?5alpha?5generat@ 1003d708     unlitgeneric_dx9.obj
 0002:00004748       ??_C@_0BJ@HNNEIICO@$DISTANCEALPHAFROMDETAIL?$AA@ 1003d748     unlitgeneric_dx9.obj
 0002:00004764       ??_C@_0DM@CEJFJGKL@Take?5the?5distance?9coded?5alpha?5ma@ 1003d764     unlitgeneric_dx9.obj
 0002:000047a0       ??_C@_0L@NKLPABHL@$SOFTEDGES?$AA@ 1003d7a0     unlitgeneric_dx9.obj
 0002:000047ac       ??_C@_0CO@BANPBFKO@Enable?5soft?5edges?5to?5distance?5co@ 1003d7ac     unlitgeneric_dx9.obj
 0002:000047dc       ??_C@_0CD@OLDAPCKB@$SCALEEDGESOFTNESSBASEDONSCREENR@ 1003d7dc     unlitgeneric_dx9.obj
 0002:00004800       ??_C@_0EM@LEANHGAG@Scale?5the?5size?5of?5the?5soft?5edges@ 1003d800     unlitgeneric_dx9.obj
 0002:0000484c       ??_C@_0BD@GOFLPLBN@$EDGESOFTNESSSTART?$AA@ 1003d84c     unlitgeneric_dx9.obj
 0002:00004860       ??_C@_0CO@MENAABGB@Start?5value?5for?5soft?5edges?5for?5d@ 1003d860     unlitgeneric_dx9.obj
 0002:00004890       ??_C@_03JFFPCCNN@0?46?$AA@ 1003d890     unlitgeneric_dx9.obj
 0002:00004894       ??_C@_0BB@NENEJEMD@$EDGESOFTNESSEND?$AA@ 1003d894     unlitgeneric_dx9.obj
 0002:000048a8       ??_C@_0CM@PFCIKHPM@End?5value?5for?5soft?5edges?5for?5dis@ 1003d8a8     unlitgeneric_dx9.obj
 0002:000048d4       ??_C@_03LOHCHBBO@0?45?$AA@ 1003d8d4     unlitgeneric_dx9.obj
 0002:000048d8       ??_C@_05GHCNHLMO@$GLOW?$AA@ 1003d8d8     unlitgeneric_dx9.obj
 0002:000048e0       ??_C@_0DA@OHBOJCAJ@Enable?5glow?1shadow?5for?5distance?5@ 1003d8e0     unlitgeneric_dx9.obj
 0002:00004910       ??_C@_0L@IBNEPMAA@$GLOWCOLOR?$AA@ 1003d910     unlitgeneric_dx9.obj
 0002:0000491c       ??_C@_0DC@HICKDICE@color?5of?5outter?5glow?5for?5distanc@ 1003d91c     unlitgeneric_dx9.obj
 0002:00004950       ??_C@_0L@PFNDJIOL@$GLOWALPHA?$AA@ 1003d950     unlitgeneric_dx9.obj
 0002:0000495c       ??_C@_0DO@DFNKPKOB@Base?5glow?5alpha?5amount?5for?5glows@ 1003d95c     unlitgeneric_dx9.obj
 0002:0000499c       ??_C@_0L@CFPMBHHA@$GLOWSTART?$AA@ 1003d99c     unlitgeneric_dx9.obj
 0002:000049a8       ??_C@_0BM@BBDCLPKK@start?5value?5for?5glow?1shadow?$AA@ 1003d9a8     unlitgeneric_dx9.obj
 0002:000049c4       ??_C@_08FAPOMFKB@$GLOWEND?$AA@ 1003d9c4     unlitgeneric_dx9.obj
 0002:000049d0       ??_C@_0BK@IHMOGOAI@end?5value?5for?5glow?1shadow?$AA@ 1003d9d0     unlitgeneric_dx9.obj
 0002:000049ec       ??_C@_06ONJBFJA@$GLOWX?$AA@ 1003d9ec     unlitgeneric_dx9.obj
 0002:000049f4       ??_C@_0CA@DNADKGNL@texture?5offset?5x?5for?5glow?5mask?4?$AA@ 1003d9f4     unlitgeneric_dx9.obj
 0002:00004a14       ??_C@_06BHMCCENB@$GLOWY?$AA@ 1003da14     unlitgeneric_dx9.obj
 0002:00004a1c       ??_C@_0CA@LKKFGNJI@texture?5offset?5y?5for?5glow?5mask?4?$AA@ 1003da1c     unlitgeneric_dx9.obj
 0002:00004a3c       ??_C@_08FMLBNNDL@$OUTLINE?$AA@ 1003da3c     unlitgeneric_dx9.obj
 0002:00004a48       ??_C@_0CM@KLLNNLIC@Enable?5outline?5for?5distance?5code@ 1003da48     unlitgeneric_dx9.obj
 0002:00004a74       ??_C@_0O@KBLLMLFI@$OUTLINECOLOR?$AA@ 1003da74     unlitgeneric_dx9.obj
 0002:00004a84       ??_C@_0CM@IHGPAFBM@color?5of?5outline?5for?5distance?5co@ 1003da84     unlitgeneric_dx9.obj
 0002:00004ab0       ??_C@_0O@NFLMKPLD@$OUTLINEALPHA?$AA@ 1003dab0     unlitgeneric_dx9.obj
 0002:00004ac0       ??_C@_0BI@PDCHIFHH@alpha?5value?5for?5outline?$AA@ 1003dac0     unlitgeneric_dx9.obj
 0002:00004ad8       ??_C@_0P@OKPGANCJ@$OUTLINESTART0?$AA@ 1003dad8     unlitgeneric_dx9.obj
 0002:00004ae8       ??_C@_0BO@HNHDKAFI@outer?5start?5value?5for?5outline?$AA@ 1003dae8     unlitgeneric_dx9.obj
 0002:00004b08       ??_C@_0P@PDONDMGI@$OUTLINESTART1?$AA@ 1003db08     unlitgeneric_dx9.obj
 0002:00004b18       ??_C@_0BO@GMLGAKKB@inner?5start?5value?5for?5outline?$AA@ 1003db18     unlitgeneric_dx9.obj
 0002:00004b38       ??_C@_0N@HOHFLADN@$OUTLINEEND0?$AA@ 1003db38     unlitgeneric_dx9.obj
 0002:00004b48       ??_C@_0BM@IOIDNCNO@inner?5end?5value?5for?5outline?$AA@ 1003db48     unlitgeneric_dx9.obj
 0002:00004b64       ??_C@_0N@GHGOIBHM@$OUTLINEEND1?$AA@ 1003db64     unlitgeneric_dx9.obj
 0002:00004b74       ??_C@_0BM@EOGMLBCH@outer?5end?5value?5for?5outline?$AA@ 1003db74     unlitgeneric_dx9.obj
 0002:00004b90       ??_C@_0CG@BIDLLNBO@$SCALEOUTLINESOFTNESSBASEDONSCRE@ 1003db90     unlitgeneric_dx9.obj
 0002:00004bb8       ??_C@_0FK@IGFMDJBM@Scale?5the?5size?5of?5the?5soft?5part?5@ 1003dbb8     unlitgeneric_dx9.obj
 0002:00004c14       ??_C@_0BD@DIHKOBLP@$SEPARATEDETAILUVS?$AA@ 1003dc14     unlitgeneric_dx9.obj
 0002:00004c28       ??_C@_0CB@GNJDAOIO@Use?5texcoord1?5for?5detail?5texture@ 1003dc28     unlitgeneric_dx9.obj
 0002:00004c4c       ??_C@_0BA@OMGIDCLN@$GAMMACOLORREAD?$AA@ 1003dc4c     unlitgeneric_dx9.obj
 0002:00004c5c       ??_C@_0DA@LCICOOCL@Disables?5SRGB?5conversion?5of?5colo@ 1003dc5c     unlitgeneric_dx9.obj
 0002:00004c8c       ??_C@_0CM@EIONJHAK@Disables?5SRGB?5conversion?5of?5shad@ 1003dc8c     unlitgeneric_dx9.obj
 0002:00004cb8       ??_C@_0BD@JGLIBMJI@$RECEIVEFLASHLIGHT?$AA@ 1003dcb8     unlitgeneric_dx9.obj
 0002:00004ccc       ??_C@_0CN@MAHHDOFP@Forces?5this?5material?5to?5receive?5@ 1003dccc     unlitgeneric_dx9.obj
 0002:00004cfc       ??_C@_0BI@PDJMCNCH@SDK_UnlitTwoTexture_DX9?$AA@ 1003dcfc     unlittwotexture_dx9.obj
 0002:00004d14       ??_C@_0CB@FHPEEGMA@Help?5for?5SDK_UnlitTwoTexture_DX9@ 1003dd14     unlittwotexture_dx9.obj
 0002:00004d38       ??_C@_0BE@FPKKGJFD@SDK_UnlitTwoTexture?$AA@ 1003dd38     unlittwotexture_dx9.obj
 0002:00004d54       ??_7CShader@SDK_UnlitTwoTexture@@6B@ 1003dd54     unlittwotexture_dx9.obj
 0002:00004dac       ??_7CShader@SDK_UnlitTwoTexture_DX9@@6B@ 1003ddac     unlittwotexture_dx9.obj
 0002:00004dfc       ??_C@_0BE@PLMJKBHM@UnlitTwoTexture_DX8?$AA@ 1003ddfc     unlittwotexture_dx9.obj
 0002:00004e10       ??_C@_0BJ@CKOMGPED@sdk_unlittwotexture_ps20?$AA@ 1003de10     unlittwotexture_dx9.obj
 0002:00004e2c       ??_C@_0BK@LIDEPFGA@sdk_unlittwotexture_ps20b?$AA@ 1003de2c     unlittwotexture_dx9.obj
 0002:00004e48       ??_C@_0BJ@KFKMJKOD@sdk_unlittwotexture_vs20?$AA@ 1003de48     unlittwotexture_dx9.obj
 0002:00004e64       ??_C@_0P@IPHKDFAO@second?5texture?$AA@ 1003de64     unlittwotexture_dx9.obj
 0002:00004e74       ??_C@_0BL@CKDDJKNK@frame?5number?5for?5$texture2?$AA@ 1003de74     unlittwotexture_dx9.obj
 0002:00004e90       ??_C@_0BD@NIALCLDF@$TEXTURE2TRANSFORM?$AA@ 1003de90     unlittwotexture_dx9.obj
 0002:00004ea4       ??_C@_0BN@JDEPAKEB@$texture2?5texcoord?5transform?$AA@ 1003dea4     unlittwotexture_dx9.obj
 0002:00004ec4       ??_C@_0BF@ELBGCJND@SDK_VertexLitGeneric?$AA@ 1003dec4     vertexlitgeneric_dx9.obj
 0002:00004edc       ??_C@_0BO@BJFJNJKA@Help?5for?5SDK_VertexLitGeneric?$AA@ 1003dedc     vertexlitgeneric_dx9.obj
 0002:00004f04       ??_7CShader@SDK_VertexLitGeneric@@6B@ 1003df04     vertexlitgeneric_dx9.obj
 0002:00004f54       ??_C@_0BF@NIJNKFJD@VertexLitGeneric_DX8?$AA@ 1003df54     vertexlitgeneric_dx9.obj
 0002:00004f6c       ??_C@_0BF@FPAFLJFM@VertexLitGeneric_DX7?$AA@ 1003df6c     vertexlitgeneric_dx9.obj
 0002:00004f84       ??_C@_0BF@EGBOIIBN@VertexLitGeneric_DX6?$AA@ 1003df84     vertexlitgeneric_dx9.obj
 0002:00004f9c       ??_C@_09HFEGGNDE@$COMPRESS?$AA@ 1003df9c     vertexlitgeneric_dx9.obj
 0002:00004fa8       ??_C@_0BH@LCDJFEJO@compression?5wrinklemap?$AA@ 1003dfa8     vertexlitgeneric_dx9.obj
 0002:00004fc0       ??_C@_08BFJOBBNL@$STRETCH?$AA@ 1003dfc0     vertexlitgeneric_dx9.obj
 0002:00004fcc       ??_C@_0BF@KMMGAENM@expansion?5wrinklemap?$AA@ 1003dfcc     vertexlitgeneric_dx9.obj
 0002:00004fe4       ??_C@_0O@IMIPDLA@$BUMPCOMPRESS?$AA@ 1003dfe4     vertexlitgeneric_dx9.obj
 0002:00004ff4       ??_C@_0BF@JFLJLFIP@compression?5bump?5map?$AA@ 1003dff4     vertexlitgeneric_dx9.obj
 0002:0000500c       ??_C@_0N@JMJOCEFE@$BUMPSTRETCH?$AA@ 1003e00c     vertexlitgeneric_dx9.obj
 0002:0000501c       ??_C@_0BD@ODIIFBBH@expansion?5bump?5map?$AA@ 1003e01c     vertexlitgeneric_dx9.obj
 0002:00005030       ??_C@_0BM@EFKJOJDH@$SELFILLUM_ENVMAPMASK_ALPHA?$AA@ 1003e030     vertexlitgeneric_dx9.obj
 0002:0000504c       ??_C@_0DM@OEILIDHN@defines?5that?5self?5illum?5value?5co@ 1003e04c     vertexlitgeneric_dx9.obj
 0002:00005088       ??_C@_0BC@DMNOIDOB@$SELFILLUMFRESNEL?$AA@ 1003e088     vertexlitgeneric_dx9.obj
 0002:0000509c       ??_C@_0BD@LKKACLAB@Self?5illum?5fresnel?$AA@ 1003e09c     vertexlitgeneric_dx9.obj
 0002:000050b0       ??_C@_0BL@MALKICOF@$SELFILLUMFRESNELMINMAXEXP?$AA@ 1003e0b0     vertexlitgeneric_dx9.obj
 0002:000050cc       ??_C@_0CB@JCDGMCEP@Self?5illum?5fresnel?5min?0?5max?0?5exp@ 1003e0cc     vertexlitgeneric_dx9.obj
 0002:000050f0       ??_C@_0BF@PJDOHKGB@$FLASHLIGHTNOLAMBERT?$AA@ 1003e0f0     vertexlitgeneric_dx9.obj
 0002:00005108       ??_C@_0BN@GOFMGIJE@Flashlight?5pass?5sets?5N?4L?$DN1?40?$AA@ 1003e108     vertexlitgeneric_dx9.obj
 0002:00005128       ??_C@_0N@IMOPKPML@$AMBIENTONLY?$AA@ 1003e128     vertexlitgeneric_dx9.obj
 0002:00005138       ??_C@_0CI@MCIJJHHH@Control?5drawing?5of?5non?9ambient?5l@ 1003e138     vertexlitgeneric_dx9.obj
 0002:00005160       ??_C@_0BH@JHJNHNM@warp?5the?5specular?5term?$AA@ 1003e160     vertexlitgeneric_dx9.obj
 0002:00005178       ??_C@_0BH@LGBADMND@$BASEMAPALPHAPHONGMASK?$AA@ 1003e178     vertexlitgeneric_dx9.obj
 0002:00005190       ??_C@_0EP@BNPEEDNN@indicates?5that?5there?5is?5no?5norma@ 1003e190     vertexlitgeneric_dx9.obj
 0002:000051e0       ??_C@_0BB@MEMCOJM@$INVERTPHONGMASK?$AA@ 1003e1e0     vertexlitgeneric_dx9.obj
 0002:000051f4       ??_C@_0DB@JICDIPDB@invert?5the?5phong?5mask?5?$CI0?$DNfull?5ph@ 1003e1f4     vertexlitgeneric_dx9.obj
 0002:00005228       ??_C@_0P@EPJMFIJC@$ENVMAPFRESNEL?$AA@ 1003e228     vertexlitgeneric_dx9.obj
 0002:00005238       ??_C@_0DF@HJGGAHMN@Degree?5to?5which?5Fresnel?5should?5b@ 1003e238     vertexlitgeneric_dx9.obj
 0002:00005270       ??_C@_09JOINEECP@$RIMLIGHT?$AA@ 1003e270     vertexlitgeneric_dx9.obj
 0002:0000527c       ??_C@_0BF@BFOOEHP@enables?5rim?5lighting?$AA@ 1003e27c     vertexlitgeneric_dx9.obj
 0002:00005294       ??_C@_0BC@HMMNDGGP@$RIMLIGHTEXPONENT?$AA@ 1003e294     vertexlitgeneric_dx9.obj
 0002:000052a8       ??_C@_0BI@ILNFICKJ@Exponent?5for?5rim?5lights?$AA@ 1003e2a8     vertexlitgeneric_dx9.obj
 0002:000052c0       ??_C@_03EMGHBCAM@4?40?$AA@ 1003e2c0     vertexlitgeneric_dx9.obj
 0002:000052c4       ??_C@_0P@LKKBHMNF@$RIMLIGHTBOOST?$AA@ 1003e2c4     vertexlitgeneric_dx9.obj
 0002:000052d4       ??_C@_0BF@LAEOLPAC@Boost?5for?5rim?5lights?$AA@ 1003e2d4     vertexlitgeneric_dx9.obj
 0002:000052ec       ??_C@_08ENABEANK@$RIMMASK?$AA@ 1003e2ec     vertexlitgeneric_dx9.obj
 0002:000052f8       ??_C@_0FH@MBFAOGLH@Indicates?5whether?5or?5not?5to?5use?5@ 1003e2f8     vertexlitgeneric_dx9.obj
 0002:00005350       ??_C@_0P@KBOHMHPP@$SEAMLESS_BASE?$AA@ 1003e350     vertexlitgeneric_dx9.obj
 0002:00005360       ??_C@_0FA@GNKEKCDD@whether?5to?5apply?5seamless?5mappin@ 1003e360     vertexlitgeneric_dx9.obj
 0002:000053b0       ??_C@_0BB@HAKAIBKL@$SEAMLESS_DETAIL?$AA@ 1003e3b0     vertexlitgeneric_dx9.obj
 0002:000053c4       ??_C@_0DH@CGJNCNAH@where?5to?5apply?5seamless?5mapping?5@ 1003e3c4     vertexlitgeneric_dx9.obj
 0002:000053fc       ??_C@_0BK@KLMEBAPG@$EMISSIVEBLENDBASETEXTURE?$AA@ 1003e3fc     vertexlitgeneric_dx9.obj
 0002:00005418       ??_C@_0BG@HFKGDJCA@$FLESHINTERIORENABLED?$AA@ 1003e418     vertexlitgeneric_dx9.obj
 0002:00005430       ??_C@_0CB@DAFGGCBB@Enable?5Flesh?5interior?5blend?5pass@ 1003e430     vertexlitgeneric_dx9.obj
 0002:00005454       ??_C@_0BG@CBKKPBLP@$FLESHINTERIORTEXTURE?$AA@ 1003e454     vertexlitgeneric_dx9.obj
 0002:0000546c       ??_C@_0BE@HCJDLEON@Flesh?5color?5texture?$AA@ 1003e46c     vertexlitgeneric_dx9.obj
 0002:00005480       ??_C@_0BL@EEPCBNNE@$FLESHINTERIORNOISETEXTURE?$AA@ 1003e480     vertexlitgeneric_dx9.obj
 0002:0000549c       ??_C@_0BE@DMFEHPDL@Flesh?5noise?5texture?$AA@ 1003e49c     vertexlitgeneric_dx9.obj
 0002:000054b0       ??_C@_0BG@KDCNPGGO@$FLESHBORDERTEXTURE1D?$AA@ 1003e4b0     vertexlitgeneric_dx9.obj
 0002:000054c8       ??_C@_0BI@PLDDPBKD@Flesh?5border?51D?5texture?$AA@ 1003e4c8     vertexlitgeneric_dx9.obj
 0002:000054e0       ??_C@_0BE@PPPJGDAB@$FLESHNORMALTEXTURE?$AA@ 1003e4e0     vertexlitgeneric_dx9.obj
 0002:000054f4       ??_C@_0BF@HMLPCJMI@Flesh?5normal?5texture?$AA@ 1003e4f4     vertexlitgeneric_dx9.obj
 0002:0000550c       ??_C@_0BI@KKAPJKFJ@$FLESHSUBSURFACETEXTURE?$AA@ 1003e50c     vertexlitgeneric_dx9.obj
 0002:00005524       ??_C@_0BJ@EGFIEGNB@Flesh?5subsurface?5texture?$AA@ 1003e524     vertexlitgeneric_dx9.obj
 0002:00005540       ??_C@_0BC@EMBGLOPC@$FLESHCUBETEXTURE?$AA@ 1003e540     vertexlitgeneric_dx9.obj
 0002:00005554       ??_C@_0BG@LLOPBLMA@Flesh?5cubemap?5texture?$AA@ 1003e554     vertexlitgeneric_dx9.obj
 0002:0000556c       ??_C@_0BH@ILEMMCKL@$FLESHBORDERNOISESCALE?$AA@ 1003e56c     vertexlitgeneric_dx9.obj
 0002:00005584       ??_C@_0CB@LPLOGCEI@Flesh?5Noise?5UV?5scalar?5for?5border@ 1003e584     vertexlitgeneric_dx9.obj
 0002:000055a8       ??_C@_03GMOBGHL@1?45?$AA@  1003e5a8     vertexlitgeneric_dx9.obj
 0002:000055ac       ??_C@_0BI@PKOBPFAG@$FLESHDEBUGFORCEFLESHON?$AA@ 1003e5ac     vertexlitgeneric_dx9.obj
 0002:000055c4       ??_C@_0BH@NOFOOEGP@Flesh?5Debug?5full?5flesh?$AA@ 1003e5c4     vertexlitgeneric_dx9.obj
 0002:000055dc       ??_C@_0BK@LFPBAEFI@$FLESHEFFECTCENTERRADIUS1?$AA@ 1003e5dc     vertexlitgeneric_dx9.obj
 0002:000055f8       ??_C@_0BP@NMHBMDIJ@Flesh?5effect?5center?5and?5radius?$AA@ 1003e5f8     vertexlitgeneric_dx9.obj
 0002:00005618       ??_C@_0O@HDMIHFK@?$FL0?50?50?50?4001?$FN?$AA@ 1003e618     vertexlitgeneric_dx9.obj
 0002:00005628       ??_C@_0BK@JONMFHJL@$FLESHEFFECTCENTERRADIUS2?$AA@ 1003e628     vertexlitgeneric_dx9.obj
 0002:00005644       ??_C@_0BK@IHMHGGNK@$FLESHEFFECTCENTERRADIUS3?$AA@ 1003e644     vertexlitgeneric_dx9.obj
 0002:00005660       ??_C@_0BK@MIIGPABN@$FLESHEFFECTCENTERRADIUS4?$AA@ 1003e660     vertexlitgeneric_dx9.obj
 0002:0000567c       ??_C@_0BF@MOKCKPPD@$FLESHSUBSURFACETINT?$AA@ 1003e67c     vertexlitgeneric_dx9.obj
 0002:00005694       ??_C@_0BB@JAHOCLML@Subsurface?5Color?$AA@ 1003e694     vertexlitgeneric_dx9.obj
 0002:000056a8       ??_C@_0BC@IJPHLLGP@$FLESHBORDERWIDTH?$AA@ 1003e6a8     vertexlitgeneric_dx9.obj
 0002:000056bc       ??_C@_0N@GDEDLCIO@Flesh?5border?$AA@ 1003e6bc     vertexlitgeneric_dx9.obj
 0002:000056cc       ??_C@_0BF@LHJJBGCL@$FLESHBORDERSOFTNESS?$AA@ 1003e6cc     vertexlitgeneric_dx9.obj
 0002:000056e4       ??_C@_0CI@BCGDKDLG@Flesh?5border?5softness?5?$CI?$DO?50?40?5?$CG?$CG?5@ 1003e6e4     vertexlitgeneric_dx9.obj
 0002:0000570c       ??_C@_04BGADHBFE@0?442?$AA@ 1003e70c     vertexlitgeneric_dx9.obj
 0002:00005714       ??_C@_0BB@BGKALJDN@$FLESHBORDERTINT?$AA@ 1003e714     vertexlitgeneric_dx9.obj
 0002:00005728       ??_C@_0BD@PPOMNCGG@Flesh?5border?5Color?$AA@ 1003e728     vertexlitgeneric_dx9.obj
 0002:0000573c       ??_C@_0BE@PHDBKHEG@$FLESHGLOBALOPACITY?$AA@ 1003e73c     vertexlitgeneric_dx9.obj
 0002:00005750       ??_C@_0BF@ONAIANLE@Flesh?5global?5opacity?$AA@ 1003e750     vertexlitgeneric_dx9.obj
 0002:00005768       ??_C@_0BG@FDLFEFPD@$FLESHGLOSSBRIGHTNESS?$AA@ 1003e768     vertexlitgeneric_dx9.obj
 0002:00005780       ??_C@_0BH@KBJKEHKP@Flesh?5gloss?5brightness?$AA@ 1003e780     vertexlitgeneric_dx9.obj
 0002:00005798       ??_C@_04HBOLGADO@0?466?$AA@ 1003e798     vertexlitgeneric_dx9.obj
 0002:000057a0       ??_C@_0BC@EBCHLMJF@$FLESHSCROLLSPEED?$AA@ 1003e7a0     vertexlitgeneric_dx9.obj
 0002:000057b4       ??_C@_0BD@CEMIPGHI@Flesh?5scroll?5speed?$AA@ 1003e7b4     vertexlitgeneric_dx9.obj
 0002:000057c8       ??_C@_0EB@OCMEENNA@fade?5at?5intersection?5boundaries?4@ 1003e7c8     vertexlitgeneric_dx9.obj
 0002:00005810       ??_C@_0FH@PFJFGGEB@material?5?$CFs?5has?5a?5normal?5map?5and@ 1003e810     vertexlitgeneric_dx9_helper.obj
 0002:00005868       ??_C@_0GO@IGEEMBM@material?5?$CFs?5has?5a?5normal?5map?5and@ 1003e868     vertexlitgeneric_dx9_helper.obj
 0002:000058dc       ??_7CVertexLitGeneric_DX9_Context@@6B@ 1003e8dc     vertexlitgeneric_dx9_helper.obj
 0002:000058e0       __real@3fa999999999999a    1003e8e0     vertexlitgeneric_dx9_helper.obj
 0002:000058e8       __real@3fefae147ae147ae    1003e8e8     vertexlitgeneric_dx9_helper.obj
 0002:000058f0       __real@3fe0000000000000    1003e8f0     vertexlitgeneric_dx9_helper.obj
 0002:000058f8       __real@4090000000000000    1003e8f8     vertexlitgeneric_dx9_helper.obj
 0002:00005900       ??_C@_0CK@NDDKEJAH@sdk_vertexlit_and_unlit_generic_@ 1003e900     vertexlitgeneric_dx9_helper.obj
 0002:0000592c       ??_C@_0CK@FMHKLMKH@sdk_vertexlit_and_unlit_generic_@ 1003e92c     vertexlitgeneric_dx9_helper.obj
 0002:00005958       ??_C@_0CK@NCPICDDA@sdk_vertexlit_and_unlit_generic_@ 1003e958     vertexlitgeneric_dx9_helper.obj
 0002:00005984       ??_C@_0CL@HBMAMBKK@sdk_vertexlit_and_unlit_generic_@ 1003e984     vertexlitgeneric_dx9_helper.obj
 0002:000059b0       ??_C@_0CK@FNLINGJA@sdk_vertexlit_and_unlit_generic_@ 1003e9b0     vertexlitgeneric_dx9_helper.obj
 0002:000059dc       ??_C@_0CF@KJNCGBNN@sdk_vertexlit_and_unlit_generic_@ 1003e9dc     vertexlitgeneric_dx9_helper.obj
 0002:00005a04       ??_C@_0CF@CGJCJEHN@sdk_vertexlit_and_unlit_generic_@ 1003ea04     vertexlitgeneric_dx9_helper.obj
 0002:00005a2c       ??_C@_0CF@KIBAALOK@sdk_vertexlit_and_unlit_generic_@ 1003ea2c     vertexlitgeneric_dx9_helper.obj
 0002:00005a54       ??_C@_0CG@BHLMBCEI@sdk_vertexlit_and_unlit_generic_@ 1003ea54     vertexlitgeneric_dx9_helper.obj
 0002:00005a7c       ??_C@_0CF@CHFAPOEK@sdk_vertexlit_and_unlit_generic_@ 1003ea7c     vertexlitgeneric_dx9_helper.obj
 0002:00005aa8       ??_C@_0LA@NLANDKAF@DEPTHBLEND?5not?5supported?5by?5bump@ 1003eaa8     vertexlitgeneric_dx9_helper.obj
 0002:00005b58       ??_C@_0BB@KCLOEBEE@SDK_VortWarp_DX9?$AA@ 1003eb58     vortwarp_dx9.obj
 0002:00005b6c       ??_C@_0BK@HKALBOKJ@Help?5for?5SDK_VortWarp_DX9?$AA@ 1003eb6c     vortwarp_dx9.obj
 0002:00005b88       ??_C@_0N@FIPMGPGI@SDK_VortWarp?$AA@ 1003eb88     vortwarp_dx9.obj
 0002:00005b9c       ??_7CShader@SDK_VortWarp@@6B@ 1003eb9c     vortwarp_dx9.obj
 0002:00005bec       ??_C@_0BB@DKMBKIJK@SDK_VortWarp_dx9?$AA@ 1003ebec     vortwarp_dx9.obj
 0002:00005c00       ??_C@_0BC@GGLDDECL@sdk_vortwarp_ps30?$AA@ 1003ec00     vortwarp_dx9.obj
 0002:00005c14       ??_C@_0BC@OJPDMBIL@sdk_vortwarp_vs30?$AA@ 1003ec14     vortwarp_dx9.obj
 0002:00005c28       ??_C@_0BC@GHHBFOBM@sdk_vortwarp_ps20?$AA@ 1003ec28     vortwarp_dx9.obj
 0002:00005c3c       ??_C@_0BD@EDKNCEDE@sdk_vortwarp_ps20b?$AA@ 1003ec3c     vortwarp_dx9.obj
 0002:00005c50       ??_C@_0BC@OIDBKLLM@sdk_vortwarp_vs20?$AA@ 1003ec50     vortwarp_dx9.obj
 0002:00005c6c       ??_7CShader@SDK_VortWarp_DX9@@6B@ 1003ec6c     vortwarp_dx9.obj
 0002:00005cbc       ??_C@_0BA@GDMLKKOB@dev?1flat_normal?$AA@ 1003ecbc     vortwarp_dx9.obj
 0002:00005ccc       ??_C@_0N@MKODLBPE@vortwarp_DX8?$AA@ 1003eccc     vortwarp_dx9.obj
 0002:00005cdc       ??_C@_0O@HIOPFEGH@$SELFILLUMMAP?$AA@ 1003ecdc     vortwarp_dx9.obj
 0002:00005cec       ??_C@_06JCLPILPI@$UNLIT?$AA@ 1003ecec     vortwarp_dx9.obj
 0002:00005cf4       ??_C@_0BD@OACJAAMD@warp?5specular?5term?$AA@ 1003ecf4     vortwarp_dx9.obj
 0002:00005d08       ??_C@_0BL@PFILGEDE@Help?5for?5SDK_Water_DX9_HDR?$AA@ 1003ed08     water.obj
 0002:00005d24       ??_C@_0BC@CLOIEPKO@SDK_Water_DX9_HDR?$AA@ 1003ed24     water.obj
 0002:00005d38       ??_C@_0P@HAILDACL@SDK_Water_DX90?$AA@ 1003ed38     water.obj
 0002:00005d48       ??_C@_0P@GPMFBBNF@Help?5for?5Water?$AA@ 1003ed48     water.obj
 0002:00005d58       ??_C@_09GONDPMOK@SDK_Water?$AA@ 1003ed58     water.obj
 0002:00005d6c       ??_7CShader@SDK_Water@@6B@ 1003ed6c     water.obj
 0002:00005dc4       ??_7CShader@SDK_Water_DX90@@6B@ 1003edc4     water.obj
 0002:00005e14       ??_C@_0CI@OBHHNGPH@material?5?$CFs?5needs?5to?5have?5a?5$fog@ 1003ee14     water.obj
 0002:00005e3c       __real@43fa0000            1003ee3c     water.obj
 0002:00005e40       ??_C@_0CM@OOBNOFAC@?$CK?$CK?$CKneed?5to?5set?5$abovewater?5for?5m@ 1003ee40     water.obj
 0002:00005e6c       ??_C@_0L@HFMMEIC@Water_DX81?$AA@ 1003ee6c     water.obj
 0002:00005e78       ??_C@_0P@CPAPGLNH@sdk_water_ps20?$AA@ 1003ee78     water.obj
 0002:00005e88       ??_C@_0BA@EPFDEBDJ@sdk_water_ps20b?$AA@ 1003ee88     water.obj
 0002:00005e98       ??_C@_0P@KAEPJOHH@sdk_water_vs20?$AA@ 1003ee98     water.obj
 0002:00005ea8       ??_C@_0BE@BNOKFMOJ@sdk_watercheap_ps20?$AA@ 1003eea8     water.obj
 0002:00005ebc       ??_C@_0BF@IOAALJKF@sdk_watercheap_ps20b?$AA@ 1003eebc     water.obj
 0002:00005ed4       ??_C@_0BE@JCKKKJEJ@sdk_watercheap_vs20?$AA@ 1003eed4     water.obj
 0002:00005eec       ??_7CShader@SDK_Water_DX9_HDR@SDK_Water_DX90@@6B@ 1003eeec     water.obj
 0002:00005f3c       ??_C@_0P@ILOMOKJC@SDK_WATER_DX90?$AA@ 1003ef3c     water.obj
 0002:00005f4c       ??_C@_0BG@HLEAFJIE@r_waterforceexpensive?$AA@ 1003ef4c     water.obj
 0002:00005f64       ??_C@_06BLAOJFHC@$SCALE?$AA@ 1003ef64     water.obj
 0002:00005f6c       ??_C@_05DOLLDENO@?$FL1?51?$FN?$AA@ 1003ef6c     water.obj
 0002:00005f74       ??_C@_0M@NJKLIKMD@$WATERDEPTH?$AA@ 1003ef74     water.obj
 0002:00005f80       ??_C@_0BJ@GLOKDMKH@$CHEAPWATERSTARTDISTANCE?$AA@ 1003ef80     water.obj
 0002:00005fa0       ??_C@_0HC@DBLEDHLM@This?5is?5the?5distance?5from?5the?5ey@ 1003efa0     water.obj
 0002:00006014       ??_C@_0BH@JFGEEABE@$CHEAPWATERENDDISTANCE?$AA@ 1003f014     water.obj
 0002:00006030       ??_C@_0HD@IAELHHFM@This?5is?5the?5distance?5from?5the?5ey@ 1003f030     water.obj
 0002:000060a4       ??_C@_09PHLMHAOM@$FOGCOLOR?$AA@ 1003f0a4     water.obj
 0002:000060b0       ??_C@_0M@KFLCNJFA@$FORCECHEAP?$AA@ 1003f0b0     water.obj
 0002:000060bc       ??_C@_0BA@BNJMJLCP@$FORCEEXPENSIVE?$AA@ 1003f0bc     water.obj
 0002:000060cc       ??_C@_0BB@IPHAABDK@$REFLECTENTITIES?$AA@ 1003f0cc     water.obj
 0002:000060e0       ??_C@_09FDJEJLJM@$FOGSTART?$AA@ 1003f0e0     water.obj
 0002:000060ec       ??_C@_07JGDMLCFN@$FOGEND?$AA@ 1003f0ec     water.obj
 0002:000060f4       ??_C@_0M@FIGOAFFC@$ABOVEWATER?$AA@ 1003f0f4     water.obj
 0002:00006100       ??_C@_0BE@CGLNAOGN@$REFLECTBLENDFACTOR?$AA@ 1003f100     water.obj
 0002:00006114       ??_C@_0L@JKNDEJP@$NOFRESNEL?$AA@ 1003f114     water.obj
 0002:00006120       ??_C@_0BC@CGFEBPCJ@$NOLOWENDLIGHTMAP?$AA@ 1003f120     water.obj
 0002:00006134       ??_C@_08JNFLFBMI@$SCROLL1?$AA@ 1003f134     water.obj
 0002:00006140       ??_C@_08LGHGACAL@$SCROLL2?$AA@ 1003f140     water.obj
 0002:0000614c       ??_C@_0N@JFJOFBIL@$BLURREFRACT?$AA@ 1003f14c     water.obj
 0002:0000615c       ??_C@_0DD@CGMJLFHC@Cause?5the?5refraction?5to?5be?5blurr@ 1003f15c     water.obj
 0002:00006190       ??_C@_0BJ@HEBEAFBB@SDK_WorldTwoTextureBlend?$AA@ 1003f190     worldtwotextureblend.obj
 0002:000061ac       ??_C@_0CC@EKNOBKKB@Help?5for?5SDK_WorldTwoTextureBlen@ 1003f1ac     worldtwotextureblend.obj
 0002:000061d4       ??_7CShader@SDK_WorldTwoTextureBlend@@6B@ 1003f1d4     worldtwotextureblend.obj
 0002:00006224       ??_C@_0BJ@KADIFOFM@WorldTwoTextureBlend_DX8?$AA@ 1003f224     worldtwotextureblend.obj
 0002:00006240       ??_C@_0BJ@DOLLHDNC@WorldTwoTextureBlend_DX6?$AA@ 1003f240     worldtwotextureblend.obj
 0002:0000625c       ??_C@_0BO@HNELMOKN@sdk_worldtwotextureblend_ps20?$AA@ 1003f25c     worldtwotextureblend.obj
 0002:0000627c       ??_C@_0BP@PPNBJNLO@sdk_worldtwotextureblend_ps20b?$AA@ 1003f27c     worldtwotextureblend.obj
 0002:0000629c       ??_C@_0CA@PFBGJPNI@shadertest?1WorldTwoTextureBlend?$AA@ 1003f29c     worldtwotextureblend.obj
 0002:000062bc       ??_C@_0CH@IAEEHIBL@shadertest?1WorldTwoTextureBlend_@ 1003f2bc     worldtwotextureblend.obj
 0002:000062e8       ??_C@_0EN@CHBOMIMO@Scale?5factor?5for?5?8seamless?8?5text@ 1003f2e8     worldtwotextureblend.obj
 0002:00006338       ??_C@_0BF@LMKMONEB@SDK_WorldVertexAlpha?$AA@ 1003f338     worldvertexalpha.obj
 0002:00006350       ??_C@_0BO@OOODBNDC@Help?5for?5SDK_WorldVertexAlpha?$AA@ 1003f350     worldvertexalpha.obj
 0002:00006374       ??_7CShader@SDK_WorldVertexAlpha@@6B@ 1003f374     worldvertexalpha.obj
 0002:000063c4       ??_C@_0BB@OOHLANC@WorldVertexAlpha?$AA@ 1003f3c4     worldvertexalpha.obj
 0002:000063d8       ??_C@_0BK@LNDANAMH@sdk_worldvertexalpha_ps20?$AA@ 1003f3d8     worldvertexalpha.obj
 0002:000063f4       ??_C@_0BL@FCHGGOOG@sdk_worldvertexalpha_ps20b?$AA@ 1003f3f4     worldvertexalpha.obj
 0002:00006410       ??_C@_0BO@FEMCJDGK@SDK_WorldVertexTransition_DX9?$AA@ 1003f410     worldvertextransition.obj
 0002:00006430       ??_C@_0BP@KDBGIHNO@Help?5for?5WorldVertexTransition?$AA@ 1003f430     worldvertextransition.obj
 0002:00006450       ??_C@_0BK@GPLFMMAM@SDK_WorldVertexTransition?$AA@ 1003f450     worldvertextransition.obj
 0002:00006474       ??_7CShader@SDK_WorldVertexTransition@@6B@ 1003f474     worldvertextransition.obj
 0002:000064cc       ??_7CShader@SDK_WorldVertexTransition_DX9@@6B@ 1003f4cc     worldvertextransition.obj
 0002:0000651c       ??_C@_0BK@GBOMKJDK@WorldVertexTransition_DX8?$AA@ 1003f51c     worldvertextransition.obj
 0002:00006538       ??_C@_0DL@NGGGJKMA@whether?5or?5not?5to?5use?5alternate?5@ 1003f538     worldvertextransition.obj
 0002:00006574       ??_C@_0CB@DNEFJHOM@SDK_WorldVertexTransition_Editor@ 1003f574     worldvertextransition_dx8_helper.obj
 0002:0000699c       ??_7CShaderDLLVerification@@6B@ 1003f99c     shader_dll_verify.obj
 0002:000069b0       ??_C@_0BJ@NIFKIOGJ@Void_CelShadeLightmapped?$AA@ 1003f9b0     void_celshadelightmapped.obj
 0002:000069cc       ??_C@_0CC@OGJAJBNJ@Help?5for?5Void_CelShadeLightmappe@ 1003f9cc     void_celshadelightmapped.obj
 0002:000069f4       ??_7CShader@Void_CelShadeLightmapped@@6B@ 1003f9f4     void_celshadelightmapped.obj
 0002:00006a44       ??_C@_0BO@MDINPEDG@void_celshadelightmapped_ps20?$AA@ 1003fa44     void_celshadelightmapped.obj
 0002:00006a64       ??_C@_0BP@JILCBBEI@void_celshadelightmapped_ps20b?$AA@ 1003fa64     void_celshadelightmapped.obj
 0002:00006a84       ??_C@_0BO@EMMNABJG@void_celshadelightmapped_vs20?$AA@ 1003fa84     void_celshadelightmapped.obj
 0002:00006aa4       ??_C@_0BD@HNNJLMDL@void_rendernormals?$AA@ 1003faa4     void_celshadelightmapped.obj
 0002:00006ab8       ??_C@_0N@HKAAPGCA@$BASETEXTURE?$AA@ 1003fab8     void_celshadelightmapped.obj
 0002:00006ac8       ??_C@_09PCBDPEBH@$PARALLAX?$AA@ 1003fac8     void_celshadelightmapped.obj
 0002:00006ad4       ??_C@_0O@GBOJDGLM@void_postblur?$AA@ 1003fad4     void_postblur.obj
 0002:00006ae4       ??_C@_0BH@HBDKFCLA@Help?5for?5Void_PostBlur?$AA@ 1003fae4     void_postblur.obj
 0002:00006b04       ??_7CShader@void_postblur@@6B@ 1003fb04     void_postblur.obj
 0002:00006b54       ??_C@_0BD@FPILKBDD@void_postblur_ps20?$AA@ 1003fb54     void_postblur.obj
 0002:00006b68       ??_C@_0BE@OIEEODJC@void_postblur_ps20b?$AA@ 1003fb68     void_postblur.obj
 0002:00006b7c       ??_C@_0BG@IJHGCDMB@void_postprocess_vs20?$AA@ 1003fb7c     void_postblur.obj
 0002:00006b94       ??_C@_0L@MNMLAMHA@$TEXOFFSET?$AA@ 1003fb94     void_postblur.obj
 0002:00006ba0       ??_C@_06MIEGDBND@?$FL0?0?50?$FN?$AA@ 1003fba0     void_postblur.obj
 0002:00006ba8       ??_C@_0P@DOCOIGOL@$NOALPHAWEIGHT?$AA@ 1003fba8     void_postblur.obj
 0002:00006bb8       ??_C@_0BD@NKBNFCIG@Void_PostComposite?$AA@ 1003fbb8     void_postcomposite.obj
 0002:00006bcc       ??_C@_0BM@MKBJELPH@Help?5for?5Void_PostComposite?$AA@ 1003fbcc     void_postcomposite.obj
 0002:00006bec       ??_7CShader@Void_PostComposite@@6B@ 1003fbec     void_postcomposite.obj
 0002:00006c3c       ??_C@_0BI@OFDFHLMP@void_postcomposite_ps20?$AA@ 1003fc3c     void_postcomposite.obj
 0002:00006c54       ??_C@_0BJ@FMPFODHP@void_postcomposite_ps20b?$AA@ 1003fc54     void_postcomposite.obj
 0002:00006c70       ??_C@_0BA@GGDNLHFG@$OVERLAYTEXTURE?$AA@ 1003fc70     void_postcomposite.obj
 0002:00006c80       ??_C@_0BE@OBAFFNOD@effects?7unnelvision?$AA@ 1003fc80     void_postcomposite.obj
 0002:00006c94       ??_C@_0O@LDPDBCKB@$OVERLAYCOLOR?$AA@ 1003fc94     void_postcomposite.obj
 0002:00006ca4       ??_C@_0M@LNGNEIKO@?$FL?51?51?51?51?5?$FN?$AA@ 1003fca4     void_postcomposite.obj
 0002:00006cb0       ??_C@_0O@GAMHGCHF@$NOISETEXTURE?$AA@ 1003fcb0     void_postcomposite.obj
 0002:00006cc0       ??_C@_0N@IJAJFALC@effects?6oise?$AA@ 1003fcc0     void_postcomposite.obj
 0002:00006cd0       ??_C@_0M@IGAPEDCF@$NOISEFRAME?$AA@ 1003fcd0     void_postcomposite.obj
 0002:00006cdc       ??_C@_0BA@LJAOJFFH@void_postgodray?$AA@ 1003fcdc     void_postgodray.obj
 0002:00006cec       ??_C@_0BJ@PPFGMAPH@Help?5for?5Void_PostGodRay?$AA@ 1003fcec     void_postgodray.obj
 0002:00006d0c       ??_7CShader@void_postgodray@@6B@ 1003fd0c     void_postgodray.obj
 0002:00006d5c       ??_C@_0BF@LKBNGICE@void_postgodray_ps20?$AA@ 1003fd5c     void_postgodray.obj
 0002:00006d74       ??_C@_0BG@GLHCPAJM@void_postgodray_ps20b?$AA@ 1003fd74     void_postgodray.obj
 0002:00006d8c       ??_C@_0N@GCPECHOL@$LIGHTORIGIN?$AA@ 1003fd8c     void_postgodray.obj
 0002:00006d9c       ??_C@_0L@ODMCKAFE@?$FL0?45?0?50?45?$FN?$AA@ 1003fd9c     void_postgodray.obj
 0002:00006da8       ??_C@_0BI@FPGMCGNL@void_postworldcomposite?$AA@ 1003fda8     void_postworldcomposite.obj
 0002:00006dc0       ??_C@_0CB@OEMOPIBM@Help?5for?5Void_PostWorldComposite@ 1003fdc0     void_postworldcomposite.obj
 0002:00006dec       ??_7CShader@void_postworldcomposite@@6B@ 1003fdec     void_postworldcomposite.obj
 0002:00006e3c       ??_C@_0BN@ICLLJPOH@void_postworldcomposite_ps20?$AA@ 1003fe3c     void_postworldcomposite.obj
 0002:00006e5c       ??_C@_0BO@GJCHMFGB@void_postworldcomposite_ps20b?$AA@ 1003fe5c     void_postworldcomposite.obj
 0002:00006e7c       ??_C@_0P@IBPAJEIO@$WORLDTEXTURE1?$AA@ 1003fe7c     void_postworldcomposite.obj
 0002:00006e8c       ??_C@_0BC@DKEJIJGA@_rt_WorldTexture1?$AA@ 1003fe8c     void_postworldcomposite.obj
 0002:00006ea0       ??_C@_0P@KKNNMHEN@$WORLDTEXTURE2?$AA@ 1003fea0     void_postworldcomposite.obj
 0002:00006eb0       ??_C@_0BC@BBGENKKD@_rt_WorldTexture2?$AA@ 1003feb0     void_postworldcomposite.obj
 0002:00006ec4       ??_C@_0BA@OPPCMMDG@$BLENDCONSTANTS?$AA@ 1003fec4     void_postworldcomposite.obj
 0002:00006ed4       ??_C@_0BD@GFLJDNLF@?$FL0?41?0?50?41?52?45?52?45?$FN?$AA@ 1003fed4     void_postworldcomposite.obj
 0002:00006ee8       ??_C@_0L@HINNFFNA@$BLENDMODE?$AA@ 1003fee8     void_postworldcomposite.obj
 0002:00006ef4       ?nanmask@@3HB              1003fef4     mathlib:mathlib_base.obj
 0002:00006ef8       __real@34000000            1003fef8     mathlib:mathlib_base.obj
 0002:00006f00       __real@3f9921fb54442d18    1003ff00     mathlib:mathlib_base.obj
 0002:00006f08       __real@0000000000000000    1003ff08     mathlib:mathlib_base.obj
 0002:00006f10       __real@3e000000            1003ff10     mathlib:mathlib_base.obj
 0002:00006f18       __real@40019999a0000000    1003ff18     mathlib:color_conversion.obj
 0002:00006f20       __real@3fdd1745c0000000    1003ff20     mathlib:color_conversion.obj
 0002:00006f28       __real@437f0000            1003ff28     mathlib:color_conversion.obj
 0002:00006f2c       __real@3f733333            1003ff2c     mathlib:color_conversion.obj
 0002:00006f30       __real@3f50000000000000    1003ff30     mathlib:color_conversion.obj
 0002:00006f38       __real@406fe00000000000    1003ff38     mathlib:color_conversion.obj
 0002:00006f40       __real@3fec000000000000    1003ff40     mathlib:color_conversion.obj
 0002:00006f48       __real@3f50040100401004    1003ff48     mathlib:color_conversion.obj
 0002:00006f50       __real@3b808081            1003ff50     mathlib:color_conversion.obj
 0002:00006f58       __real@3fc0000000000000    1003ff58     mathlib:color_conversion.obj
 0002:00006f60       __real@3fb3333333333333    1003ff60     mathlib:color_conversion.obj
 0002:00006f68       __real@3d4ccccd            1003ff68     mathlib:color_conversion.obj
 0002:00007030       ??_C@_0DO@JEGLGEMI@tint?5value?5to?5be?5applied?5when?5ru@ 10040030     shaderlib:BaseShader.obj
 0002:00007070       ??_C@_09DFNDCFLK@$srgbtint?$AA@ 10040070     shaderlib:BaseShader.obj
 0002:0000707c       ??_C@_06KEONFOCA@color2?$AA@ 1004007c     shaderlib:BaseShader.obj
 0002:00007084       ??_C@_07CBJPDCJL@$color2?$AA@ 10040084     shaderlib:BaseShader.obj
 0002:0000708c       ??_C@_0CA@FNHEODEF@Animation?5Frame?5for?5$flashlight?$AA@ 1004008c     shaderlib:BaseShader.obj
 0002:000070ac       ??_C@_0BI@FBLAAOOF@$flashlighttextureframe?$AA@ 100400ac     shaderlib:BaseShader.obj
 0002:000070c4       ??_C@_0CD@IJMMJMM@flashlight?5spotlight?5shape?5textu@ 100400c4     shaderlib:BaseShader.obj
 0002:000070e8       ??_C@_0BD@OEFGBNBD@$flashlighttexture?$AA@ 100400e8     shaderlib:BaseShader.obj
 0002:000070fc       ??_C@_0CA@IPALKODP@Base?5Texture?5Texcoord?5Transform?$AA@ 100400fc     shaderlib:BaseShader.obj
 0002:0000711c       ??_C@_0BG@CPMMPAAK@$basetexturetransform?$AA@ 1004011c     shaderlib:BaseShader.obj
 0002:00007134       ??_C@_0BA@IPLPKCPL@Animation?5Frame?$AA@ 10040134     shaderlib:BaseShader.obj
 0002:00007144       ??_C@_06NPMBDFBB@$frame?$AA@ 10040144     shaderlib:BaseShader.obj
 0002:0000714c       ??_C@_0CE@NAOMCFML@Base?5Texture?5with?5lighting?5built@ 1004014c     shaderlib:BaseShader.obj
 0002:00007170       ??_C@_0N@NEFMJPPI@$basetexture?$AA@ 10040170     shaderlib:BaseShader.obj
 0002:00007180       ??_C@_05IAEKHIAN@alpha?$AA@ 10040180     shaderlib:BaseShader.obj
 0002:00007188       ??_C@_06JHBGBLFP@$alpha?$AA@ 10040188     shaderlib:BaseShader.obj
 0002:00007190       ??_C@_05PEENBMOG@color?$AA@ 10040190     shaderlib:BaseShader.obj
 0002:00007198       ??_C@_06ODBBHPLE@$color?$AA@ 10040198     shaderlib:BaseShader.obj
 0002:000071a0       ??_C@_0P@JEJGAOCB@flags2_defined?$AA@ 100401a0     shaderlib:BaseShader.obj
 0002:000071b0       ??_C@_0BA@GAJLMDIE@$flags_defined2?$AA@ 100401b0     shaderlib:BaseShader.obj
 0002:000071c0       ??_C@_06EMKHIFEA@flags2?$AA@ 100401c0     shaderlib:BaseShader.obj
 0002:000071c8       ??_C@_07MJNFOJPL@$flags2?$AA@ 100401c8     shaderlib:BaseShader.obj
 0002:000071d0       ??_C@_0O@OHELCBMC@flags_defined?$AA@ 100401d0     shaderlib:BaseShader.obj
 0002:000071e0       ??_C@_0P@ODJKAABP@$flags_defined?$AA@ 100401e0     shaderlib:BaseShader.obj
 0002:000071f0       ??_C@_05GECEPKB@flags?$AA@ 100401f0     shaderlib:BaseShader.obj
 0002:000071f8       ??_C@_06BBBOCMPD@$flags?$AA@ 100401f8     shaderlib:BaseShader.obj
 0002:00007204       ??_7CBaseShader@@6B@       10040204     shaderlib:BaseShader.obj
 0002:00007254       __real@41000000            10040254     shaderlib:BaseShader.obj
 0002:0000725c       ??_7IShaderDLL@@6B@        1004025c     shaderlib:ShaderDLL.obj
 0002:00007260       ??_C@_0BA@ICDFCBDO@ShaderSystem002?$AA@ 10040260     shaderlib:ShaderDLL.obj
 0002:00007270       ??_C@_0BJ@KJJBHLEN@VMaterialSystemConfig002?$AA@ 10040270     shaderlib:ShaderDLL.obj
 0002:0000728c       ??_C@_0CA@CMOGODCE@MaterialSystemHardwareConfig012?$AA@ 1004028c     shaderlib:ShaderDLL.obj
 0002:000072b0       ??_7CShaderDLL@@6BIShaderDLL@@@ 100402b0     shaderlib:ShaderDLL.obj
 0002:000072b8       ??_7CShaderDLL@@6BIShaderDLLInternal@@@ 100402b8     shaderlib:ShaderDLL.obj
 0002:000072d0       __real@400ccccd            100402d0     shaderlib:ShaderDLL.obj
 0002:000072d4       ??_C@_0N@OBPFIHDD@ShaderDLL004?$AA@ 100402d4     shaderlib:ShaderDLL.obj
 0002:000072e8       ??_7CShaderLibConVarAccessor@@6B@ 100402e8     shaderlib:shaderlib_cvar.obj
 0002:000072f0       ??_7ConCommandBase@@6B@    100402f0     tier1:convar.obj
 0002:0000731c       ??_7IConVar@@6B@           1004031c     tier1:convar.obj
 0002:00007334       ??_7ConVar@@6BIConVar@@@   10040334     tier1:convar.obj
 0002:0000734c       ??_7ConVar@@6BConCommandBase@@@ 1004034c     tier1:convar.obj
 0002:0000738c       ??_C@_02NJPGOMH@?$CFf?$AA@ 1004038c     tier1:convar.obj
 0002:00007390       ??_C@_02DPKJAMEF@?$CFd?$AA@ 10040390     tier1:convar.obj
 0002:00007398       ??_7CDefaultAccessor@@6B@  10040398     tier1:convar.obj
 0002:000073a0       ??_7CEmptyConVar@@6BIConVar@@@ 100403a0     tier1:convar.obj
 0002:000073bc       ??_7CEmptyConVar@@6BConCommandBase@@@ 100403bc     tier1:convar.obj
 0002:000073fc       ??_C@_01JOAMLHOP@?9?$AA@   100403fc     tier1:strtools.obj
 0002:00007400       ??_C@_0BB@MDCHKHHM@VProcessUtils001?$AA@ 10040400     tier1:tier1.obj
 0002:00007414       ??_C@_0P@BMLDPPDB@VEngineCvar004?$AA@ 10040414     tier1:tier1.obj
 0002:00007424       ??_C@_01BJJEKLCA@?$CC?$AA@ 10040424     tier1:utlbuffer.obj
 0002:00007428       ??_C@_01GEODFPGF@?8?$AA@   10040428     tier1:utlbuffer.obj
 0002:0000742c       ??_C@_01OGPIMHDM@?$DP?$AA@ 1004042c     tier1:utlbuffer.obj
 0002:00007430       ??_C@_01KICIPPFI@?2?$AA@   10040430     tier1:utlbuffer.obj
 0002:00007434       ??_C@_01MCMALHOG@a?$AA@    10040434     tier1:utlbuffer.obj
 0002:00007438       ??_C@_01INIBCBCB@f?$AA@    10040438     tier1:utlbuffer.obj
 0002:0000743c       ??_C@_01KDCPPGHE@r?$AA@    1004043c     tier1:utlbuffer.obj
 0002:00007440       ??_C@_01OJONOECF@b?$AA@    10040440     tier1:utlbuffer.obj
 0002:00007444       ??_C@_01MHEDDDHA@v?$AA@    10040444     tier1:utlbuffer.obj
 0002:00007448       ??_C@_01PFHFFBPC@t?$AA@    10040448     tier1:utlbuffer.obj
 0002:0000744c       ??_C@_01EFFIKLCJ@n?$AA@    1004044c     tier1:utlbuffer.obj
 0002:00007454       ??_7CUtlCharConversion@@6B@ 10040454     tier1:utlbuffer.obj
 0002:0000745c       ??_7CUtlNoEscConversion@@6B@ 1004045c     tier1:utlbuffer.obj
 0002:00007464       ??_7CUtlCStringConversion@@6B@ 10040464     tier1:utlbuffer.obj
 0002:00007468       ??_C@_02PCIJFNDE@?$AN?6?$AA@ 10040468     tier1:utlbuffer.obj
 0002:0000746c       __FPinit                   1004046c     LIBCMT:_fpinit_.obj
 0002:00007470       __FPmtinit                 10040470     LIBCMT:_fpinit_.obj
 0002:00007474       __FPmtterm                 10040474     LIBCMT:_fpinit_.obj
 0002:00007478       ??_C@_0P@GHFPNOJB@bad?5allocation?$AA@ 10040478     LIBCMT:typinfo.obj
 0002:0000748c       ??_7type_info@@6B@         1004048c     LIBCMT:typinfo.obj
 0002:00007494       ??_7bad_alloc@std@@6B@     10040494     LIBCMT:new.obj
 0002:0000749c       __pRawDllMain              1004049c     LIBCMT:dllcrt0.obj
 0002:0000749c       __pDefaultRawDllMain       1004049c     LIBCMT:dllcrt0.obj
 0002:000074f0       ??_C@_05KLBDPFGC@e?$CL000?$AA@ 100404f0     LIBCMT:cvt.obj
 0002:000074f8       __real@4150017ec0000000    100404f8     LIBCMT:_testfdiv_.obj
 0002:00007500       __real@4147ffff80000000    10040500     LIBCMT:_testfdiv_.obj
 0002:00007508       ??_C@_0BK@NHEOCAHP@IsProcessorFeaturePresent?$AA@ 10040508     LIBCMT:_testfdiv_.obj
 0002:00007524       ??_C@_08CPNIBGIE@KERNEL32?$AA@ 10040524     LIBCMT:_testfdiv_.obj
 0002:00007530       ??_C@_0P@GGKDKEEG@runtime?5error?5?$AA@ 10040530     LIBCMT:crt0msg.obj
 0002:00007540       ??_C@_0O@MJNIPGOH@TLOSS?5error?$AN?6?$AA@ 10040540     LIBCMT:crt0msg.obj
 0002:00007550       ??_C@_0N@BONNPDHF@SING?5error?$AN?6?$AA@ 10040550     LIBCMT:crt0msg.obj
 0002:00007560       ??_C@_0P@MBDAJNE@DOMAIN?5error?$AN?6?$AA@ 10040560     LIBCMT:crt0msg.obj
 0002:00007570       ??_C@_0JL@DFDOOABL@R6034?$AN?6An?5application?5has?5made?5a@ 10040570     LIBCMT:crt0msg.obj
 0002:00007610       ??_C@_0PH@EPAFIJ@R6033?$AN?6?9?5Attempt?5to?5use?5MSIL?5cod@ 10040610     LIBCMT:crt0msg.obj
 0002:00007708       ??_C@_0DD@BKEEABMM@R6032?$AN?6?9?5not?5enough?5space?5for?5lo@ 10040708     LIBCMT:crt0msg.obj
 0002:00007740       ??_C@_0GD@OFKILIED@R6031?$AN?6?9?5Attempt?5to?5initialize?5t@ 10040740     LIBCMT:crt0msg.obj
 0002:000077a4       ??_C@_0BP@LPMHJOKI@R6030?$AN?6?9?5CRT?5not?5initialized?$AN?6?$AA@ 100407a4     LIBCMT:crt0msg.obj
 0002:000077c4       ??_C@_0CF@KJDAIALP@R6028?$AN?6?9?5unable?5to?5initialize?5he@ 100407c4     LIBCMT:crt0msg.obj
 0002:000077ec       ??_C@_0DF@GAKBPDFP@R6027?$AN?6?9?5not?5enough?5space?5for?5lo@ 100407ec     LIBCMT:crt0msg.obj
 0002:00007824       ??_C@_0DF@IBLNNAIG@R6026?$AN?6?9?5not?5enough?5space?5for?5st@ 10040824     LIBCMT:crt0msg.obj
 0002:0000785c       ??_C@_0CG@IOHKGFNJ@R6025?$AN?6?9?5pure?5virtual?5function?5c@ 1004085c     LIBCMT:crt0msg.obj
 0002:00007884       ??_C@_0DF@JIJJFJDC@R6024?$AN?6?9?5not?5enough?5space?5for?5_o@ 10040884     LIBCMT:crt0msg.obj
 0002:000078bc       ??_C@_0CJ@EGEJHFME@R6019?$AN?6?9?5unable?5to?5open?5console?5@ 100408bc     LIBCMT:crt0msg.obj
 0002:000078e8       ??_C@_0CB@GNHNIELH@R6018?$AN?6?9?5unexpected?5heap?5error?$AN?6@ 100408e8     LIBCMT:crt0msg.obj
 0002:0000790c       ??_C@_0CN@FOLDKNG@R6017?$AN?6?9?5unexpected?5multithread?5@ 1004090c     LIBCMT:crt0msg.obj
 0002:0000793c       ??_C@_0CM@FAHFJNHO@R6016?$AN?6?9?5not?5enough?5space?5for?5th@ 1004093c     LIBCMT:crt0msg.obj
 0002:00007968       ??_C@_0JG@LBKMGKLD@?$AN?6This?5application?5has?5requested@ 10040968     LIBCMT:crt0msg.obj
 0002:00007a00       ??_C@_0CM@FLCNIPKK@R6009?$AN?6?9?5not?5enough?5space?5for?5en@ 10040a00     LIBCMT:crt0msg.obj
 0002:00007a2c       ??_C@_0CK@KMMJOAPP@R6008?$AN?6?9?5not?5enough?5space?5for?5ar@ 10040a2c     LIBCMT:crt0msg.obj
 0002:00007a58       ??_C@_0CN@LEKKICBM@R6002?$AN?6?9?5floating?5point?5support?5@ 10040a58     LIBCMT:crt0msg.obj
 0002:00007a88       ??_C@_0CF@GOGNBNAK@Microsoft?5Visual?5C?$CL?$CL?5Runtime?5Lib@ 10040a88     LIBCMT:crt0msg.obj
 0002:00007ab0       ??_C@_02PHMGELLB@?6?6?$AA@ 10040ab0     LIBCMT:crt0msg.obj
 0002:00007ab4       ??_C@_03KHICJKCI@?4?4?4?$AA@ 10040ab4     LIBCMT:crt0msg.obj
 0002:00007ab8       ??_C@_0BH@DNAGHKFM@?$DMprogram?5name?5unknown?$DO?$AA@ 10040ab8     LIBCMT:crt0msg.obj
 0002:00007ad0       ??_C@_0BK@OFGJDLJJ@Runtime?5Error?$CB?6?6Program?3?5?$AA@ 10040ad0     LIBCMT:crt0msg.obj
 0002:00007aec       ??_C@_0O@NLDKAIKN@EncodePointer?$AA@ 10040aec     LIBCMT:tidtable.obj
 0002:00007afc       ??_C@_1BK@DBDEIDLH@?$AAK?$AAE?$AAR?$AAN?$AAE?$AAL?$AA3?$AA2?$AA?4?$AAD?$AAL?$AAL?$AA?$AA@ 10040afc     LIBCMT:tidtable.obj
 0002:00007b18       ??_C@_0O@KBPMFGHI@DecodePointer?$AA@ 10040b18     LIBCMT:tidtable.obj
 0002:00007b28       ??_C@_07PEJMOBNF@FlsFree?$AA@ 10040b28     LIBCMT:tidtable.obj
 0002:00007b30       ??_C@_0M@JCPCPOEF@FlsSetValue?$AA@ 10040b30     LIBCMT:tidtable.obj
 0002:00007b3c       ??_C@_0M@GDNOONDI@FlsGetValue?$AA@ 10040b3c     LIBCMT:tidtable.obj
 0002:00007b48       ??_C@_08KNHFBNJ@FlsAlloc?$AA@ 10040b48     LIBCMT:tidtable.obj
 0002:00007b54       ??_C@_0P@MIGLKIOC@CorExitProcess?$AA@ 10040b54     LIBCMT:crt0dat.obj
 0002:00007b64       ??_C@_1BI@BGOHAHKC@?$AAm?$AAs?$AAc?$AAo?$AAr?$AAe?$AAe?$AA?4?$AAd?$AAl?$AAl?$AA?$AA@ 10040b64     LIBCMT:crt0dat.obj
 0002:00007bb4       ??_7exception@std@@6B@     10040bb4     LIBCMT:stdexcpt.obj
 0002:00007bbc       ??_C@_0BC@EOODALEL@Unknown?5exception?$AA@ 10040bbc     LIBCMT:stdexcpt.obj
 0002:00007bf0       __XcptActTab               10040bf0     LIBCMT:winxfltr.obj
 0002:00009498       __DEFAULT_CW_in_mem        10042498     LIBCMT:_common_.obj
 0002:0000949a       __pi_by_2_to_61            1004249a     LIBCMT:_common_.obj
 0002:0000e668       ??_C@_03IIINPABG@tan?$AA@  10047668     LIBCMT:_libm_error_.obj
 0002:0000e66c       ??_C@_03LALBNOCG@cos?$AA@  1004766c     LIBCMT:_libm_error_.obj
 0002:0000e670       ??_C@_03BLEJJJBH@sin?$AA@  10047670     LIBCMT:_libm_error_.obj
 0002:0000e674       ??_C@_04EHEDPDJG@modf?$AA@ 10047674     LIBCMT:_libm_error_.obj
 0002:0000e67c       ??_C@_05PBJFFIGL@floor?$AA@ 1004767c     LIBCMT:_libm_error_.obj
 0002:0000e684       ??_C@_04GFPJNGEK@ceil?$AA@ 10047684     LIBCMT:_libm_error_.obj
 0002:0000e68c       ??_C@_04MLLJIGOK@atan?$AA@ 1004768c     LIBCMT:_libm_error_.obj
 0002:0000e694       ??_C@_05EOHGHCHD@exp10?$AA@ 10047694     LIBCMT:_libm_error_.obj
 0002:0000e69c       ??_C@_04PDIFKINK@acos?$AA@ 1004769c     LIBCMT:_libm_error_.obj
 0002:0000e6a4       ??_C@_04FIHNOPOL@asin?$AA@ 100476a4     LIBCMT:_libm_error_.obj
 0002:0000e6ac       ??_C@_03MGHMBJCF@log?$AA@  100476ac     LIBCMT:_libm_error_.obj
 0002:0000e6b0       ??_C@_05HGHHAHAP@log10?$AA@ 100476b0     LIBCMT:_libm_error_.obj
 0002:0000e6b8       ??_C@_03KHJOGHMM@exp?$AA@  100476b8     LIBCMT:_libm_error_.obj
 0002:0000e6bc       ??_C@_03JGHBODFD@pow?$AA@  100476bc     LIBCMT:_libm_error_.obj
 0002:0000e740       ??_C@_01NEMOKFLO@?$DN?$AA@ 10047740     LIBCMT:setlocal.obj
 0002:0000e744       ??_C@_13NOLLCAOD@?$AA?$AA?$AA?$AA@ 10047744     LIBCMT:a_map.obj
 0002:0000e744       __real@00000000            10047744     aftershock_helper.obj
 0002:0000e748       ??_C@_1O@CEDCILHN@?$AA?$CI?$AAn?$AAu?$AAl?$AAl?$AA?$CJ?$AA?$AA@ 10047748     LIBCMT:output.obj
 0002:0000e758       ??_C@_06OJHGLDPL@?$CInull?$CJ?$AA@ 10047758     LIBCMT:output.obj
 0002:0000e760       ___lookuptable             10047760     LIBCMT:output.obj
 0002:0000e7bc       ??_C@_0BK@CFCOFLF@?5Complete?5Object?5Locator?8?$AA@ 100477bc     LIBCMT:undname.obj
 0002:0000e7d8       ??_C@_0BN@MECKDCOJ@?5Class?5Hierarchy?5Descriptor?8?$AA@ 100477d8     LIBCMT:undname.obj
 0002:0000e7f8       ??_C@_0BD@LGICGFMM@?5Base?5Class?5Array?8?$AA@ 100477f8     LIBCMT:undname.obj
 0002:0000e80c       ??_C@_0BM@LDKODKLH@?5Base?5Class?5Descriptor?5at?5?$CI?$AA@ 1004780c     LIBCMT:undname.obj
 0002:0000e828       ??_C@_0BC@DAFEJGAK@?5Type?5Descriptor?8?$AA@ 10047828     LIBCMT:undname.obj
 0002:0000e83c       ??_C@_0BM@PMGGMLDN@?$GAlocal?5static?5thread?5guard?8?$AA@ 1004783c     LIBCMT:undname.obj
 0002:0000e858       ??_C@_0CL@FGIJHLCE@?$GAmanaged?5vector?5copy?5constructor@ 10047858     LIBCMT:undname.obj
 0002:0000e884       ??_C@_0CJ@GJELGAMM@?$GAvector?5vbase?5copy?5constructor?5i@ 10047884     LIBCMT:undname.obj
 0002:0000e8b0       ??_C@_0CD@CGAJBKEJ@?$GAvector?5copy?5constructor?5iterato@ 100478b0     LIBCMT:undname.obj
 0002:0000e8d4       ??_C@_0CB@PDBIFEP@?$GAdynamic?5atexit?5destructor?5for?5?8@ 100478d4     LIBCMT:undname.obj
 0002:0000e8f8       ??_C@_0BL@CLIPGLGB@?$GAdynamic?5initializer?5for?5?8?$AA@ 100478f8     LIBCMT:undname.obj
 0002:0000e914       ??_C@_0CM@FCBBDIGB@?$GAeh?5vector?5vbase?5copy?5constructo@ 10047914     LIBCMT:undname.obj
 0002:0000e940       ??_C@_0CG@HLDDJMAG@?$GAeh?5vector?5copy?5constructor?5iter@ 10047940     LIBCMT:undname.obj
 0002:0000e968       ??_C@_0CF@IMGKMJNO@?$GAmanaged?5vector?5destructor?5itera@ 10047968     LIBCMT:undname.obj
 0002:0000e990       ??_C@_0CG@CFDHKGGD@?$GAmanaged?5vector?5constructor?5iter@ 10047990     LIBCMT:undname.obj
 0002:0000e9b8       ??_C@_0BN@CKNJLHMB@?$GAplacement?5delete?$FL?$FN?5closure?8?$AA@ 100479b8     LIBCMT:undname.obj
 0002:0000e9d8       ??_C@_0BL@CNOONJFP@?$GAplacement?5delete?5closure?8?$AA@ 100479d8     LIBCMT:undname.obj
 0002:0000e9f4       ??_C@_0P@HJKNJFNN@?$GAomni?5callsig?8?$AA@ 100479f4     LIBCMT:undname.obj
 0002:0000ea04       ??_C@_09LBNFPBCA@?5delete?$FL?$FN?$AA@ 10047a04     LIBCMT:undname.obj
 0002:0000ea10       ??_C@_06FHBGPFGH@?5new?$FL?$FN?$AA@ 10047a10     LIBCMT:undname.obj
 0002:0000ea18       ??_C@_0CE@IIHCMGGL@?$GAlocal?5vftable?5constructor?5closu@ 10047a18     LIBCMT:undname.obj
 0002:0000ea3c       ??_C@_0BA@KKLDJDLB@?$GAlocal?5vftable?8?$AA@ 10047a3c     LIBCMT:undname.obj
 0002:0000ea4c       ??_C@_05KHLCHHI@?$GARTTI?$AA@ 10047a4c     LIBCMT:undname.obj
 0002:0000ea54       ??_C@_03KLGMFNMG@?$GAEH?$AA@ 10047a54     LIBCMT:undname.obj
 0002:0000ea58       ??_C@_0BA@KBCDOMBN@?$GAudt?5returning?8?$AA@ 10047a58     LIBCMT:undname.obj
 0002:0000ea68       ??_C@_0BL@LLKPOHJI@?$GAcopy?5constructor?5closure?8?$AA@ 10047a68     LIBCMT:undname.obj
 0002:0000ea84       ??_C@_0CH@OOJPLCPH@?$GAeh?5vector?5vbase?5constructor?5ite@ 10047a84     LIBCMT:undname.obj
 0002:0000eaac       ??_C@_0CA@GCEOPDGL@?$GAeh?5vector?5destructor?5iterator?8?$AA@ 10047aac     LIBCMT:undname.obj
 0002:0000eacc       ??_C@_0CB@JONCMFFK@?$GAeh?5vector?5constructor?5iterator?8@ 10047acc     LIBCMT:undname.obj
 0002:0000eaf0       ??_C@_0BL@NILFHHPC@?$GAvirtual?5displacement?5map?8?$AA@ 10047af0     LIBCMT:undname.obj
 0002:0000eb0c       ??_C@_0CE@IKBNEHA@?$GAvector?5vbase?5constructor?5iterat@ 10047b0c     LIBCMT:undname.obj
 0002:0000eb30       ??_C@_0BN@LFPFMEDL@?$GAvector?5destructor?5iterator?8?$AA@ 10047b30     LIBCMT:undname.obj
 0002:0000eb50       ??_C@_0BO@PFGOCPJJ@?$GAvector?5constructor?5iterator?8?$AA@ 10047b50     LIBCMT:undname.obj
 0002:0000eb70       ??_C@_0BN@IMDCHIKM@?$GAscalar?5deleting?5destructor?8?$AA@ 10047b70     LIBCMT:undname.obj
 0002:0000eb90       ??_C@_0BO@OBMKPJIG@?$GAdefault?5constructor?5closure?8?$AA@ 10047b90     LIBCMT:undname.obj
 0002:0000ebb0       ??_C@_0BN@DEGPLNFK@?$GAvector?5deleting?5destructor?8?$AA@ 10047bb0     LIBCMT:undname.obj
 0002:0000ebd0       ??_C@_0BD@JDLKDPAB@?$GAvbase?5destructor?8?$AA@ 10047bd0     LIBCMT:undname.obj
 0002:0000ebe4       ??_C@_08OBABFOLI@?$GAstring?8?$AA@ 10047be4     LIBCMT:undname.obj
 0002:0000ebf0       ??_C@_0BF@KDPPACIK@?$GAlocal?5static?5guard?8?$AA@ 10047bf0     LIBCMT:undname.obj
 0002:0000ec08       ??_C@_08LLFFHHDJ@?$GAtypeof?8?$AA@ 10047c08     LIBCMT:undname.obj
 0002:0000ec14       ??_C@_07FEEIOKP@?$GAvcall?8?$AA@ 10047c14     LIBCMT:undname.obj
 0002:0000ec1c       ??_C@_09BLBHBJP@?$GAvbtable?8?$AA@ 10047c1c     LIBCMT:undname.obj
 0002:0000ec28       ??_C@_09IFPLHPGF@?$GAvftable?8?$AA@ 10047c28     LIBCMT:undname.obj
 0002:0000ec34       ??_C@_02MHEGNOJ@?$FO?$DN?$AA@ 10047c34     LIBCMT:undname.obj
 0002:0000ec38       ??_C@_02DHLNPPGH@?$HM?$DN?$AA@ 10047c38     LIBCMT:undname.obj
 0002:0000ec3c       ??_C@_02FGJGFEAB@?$CG?$DN?$AA@ 10047c3c     LIBCMT:undname.obj
 0002:0000ec40       ??_C@_03CDNPDDLA@?$DM?$DM?$DN?$AA@ 10047c40     LIBCMT:undname.obj
 0002:0000ec44       ??_C@_03IKFCCPFF@?$DO?$DO?$DN?$AA@ 10047c44     LIBCMT:undname.obj
 0002:0000ec48       ??_C@_02FENAOKFI@?$CF?$DN?$AA@ 10047c48     LIBCMT:undname.obj
 0002:0000ec4c       ??_C@_02FJEHGPIO@?1?$DN?$AA@ 10047c4c     LIBCMT:undname.obj
 0002:0000ec50       ??_C@_02FKMDLLOA@?9?$DN?$AA@ 10047c50     LIBCMT:undname.obj
 0002:0000ec54       ??_C@_02FOEOMHFC@?$CL?$DN?$AA@ 10047c54     LIBCMT:undname.obj
 0002:0000ec58       ??_C@_02FPIMKNGF@?$CK?$DN?$AA@ 10047c58     LIBCMT:undname.obj
 0002:0000ec5c       ??_C@_02NONPIBCD@?$HM?$HM?$AA@ 10047c5c     LIBCMT:undname.obj
 0002:0000ec60       ??_C@_02PPKAJPJL@?$CG?$CG?$AA@ 10047c60     LIBCMT:undname.obj
 0002:0000ec64       ??_C@_01DNKMNLPK@?$HM?$AA@ 10047c64     LIBCMT:undname.obj
 0002:0000ec68       ??_C@_01JKBOJNNK@?$FO?$AA@ 10047c68     LIBCMT:undname.obj
 0002:0000ec6c       ??_C@_01PJKLJHI@?$HO?$AA@  10047c6c     LIBCMT:undname.obj
 0002:0000ec70       ??_C@_02HCKGKOFO@?$CI?$CJ?$AA@ 10047c70     LIBCMT:undname.obj
 0002:0000ec74       ??_C@_01IHBHIGKO@?0?$AA@   10047c74     LIBCMT:undname.obj
 0002:0000ec78       ??_C@_02EEKDKGMJ@?$DO?$DN?$AA@ 10047c78     LIBCMT:undname.obj
 0002:0000ec7c       ??_C@_01PPODPGHN@?$DO?$AA@ 10047c7c     LIBCMT:undname.obj
 0002:0000ec80       ??_C@_02EHCHHCKH@?$DM?$DN?$AA@ 10047c80     LIBCMT:undname.obj
 0002:0000ec84       ??_C@_01MNNFJEPP@?$DM?$AA@ 10047c84     LIBCMT:undname.obj
 0002:0000ec88       ??_C@_01FGNFDNOH@?$CF?$AA@ 10047c88     LIBCMT:undname.obj
 0002:0000ec8c       ??_C@_01KMDKNFGN@?1?$AA@   10047c8c     LIBCMT:undname.obj
 0002:0000ec90       ??_C@_03MNHNFDLC@?9?$DO?$CK?$AA@ 10047c90     LIBCMT:undname.obj
 0002:0000ec94       ??_C@_01HNPIGOCE@?$CG?$AA@ 10047c94     LIBCMT:undname.obj
 0002:0000ec98       ??_C@_01MIFGBAGJ@?$CL?$AA@ 10047c98     LIBCMT:undname.obj
 0002:0000ec9c       ??_C@_02BAABKJLB@?9?9?$AA@ 10047c9c     LIBCMT:undname.obj
 0002:0000eca0       ??_C@_02ECNGHCIF@?$CL?$CL?$AA@ 10047ca0     LIBCMT:undname.obj
 0002:0000eca4       ??_C@_01NBENCBCI@?$CK?$AA@ 10047ca4     LIBCMT:undname.obj
 0002:0000eca8       ??_C@_02HBOOOICD@?9?$DO?$AA@ 10047ca8     LIBCMT:undname.obj
 0002:0000ecac       ??_C@_08LHJFAFGD@operator?$AA@ 10047cac     LIBCMT:undname.obj
 0002:0000ecb8       ??_C@_02GPECMEKF@?$FL?$FN?$AA@ 10047cb8     LIBCMT:undname.obj
 0002:0000ecbc       ??_C@_02FDNJECIE@?$CB?$DN?$AA@ 10047cbc     LIBCMT:undname.obj
 0002:0000ecc0       ??_C@_02EGOFBIJA@?$DN?$DN?$AA@ 10047cc0     LIBCMT:undname.obj
 0002:0000ecc4       ??_C@_01DCLJPIOD@?$CB?$AA@ 10047cc4     LIBCMT:undname.obj
 0002:0000ecc8       ??_C@_02FODMEDOG@?$DM?$DM?$AA@ 10047cc8     LIBCMT:undname.obj
 0002:0000eccc       ??_C@_02GPIOPFAK@?$DO?$DO?$AA@ 10047ccc     LIBCMT:undname.obj
 0002:0000ecd0       ??_C@_07FPCDHGMM@?5delete?$AA@ 10047cd0     LIBCMT:undname.obj
 0002:0000ecd8       ??_C@_04NIHEBCM@?5new?$AA@ 10047cd8     LIBCMT:undname.obj
 0002:0000ece0       ??_C@_0M@GFIIJFMG@__unaligned?$AA@ 10047ce0     LIBCMT:undname.obj
 0002:0000ecec       ??_C@_0L@PILCLIHE@__restrict?$AA@ 10047cec     LIBCMT:undname.obj
 0002:0000ecf8       ??_C@_07JOMMBBKO@__ptr64?$AA@ 10047cf8     LIBCMT:undname.obj
 0002:0000ed00       ??_C@_09HIJEGCPM@__clrcall?$AA@ 10047d00     LIBCMT:undname.obj
 0002:0000ed0c       ??_C@_0L@JMKHOMEK@__fastcall?$AA@ 10047d0c     LIBCMT:undname.obj
 0002:0000ed18       ??_C@_0L@NPHFGOKO@__thiscall?$AA@ 10047d18     LIBCMT:undname.obj
 0002:0000ed24       ??_C@_09IFJBGAPI@__stdcall?$AA@ 10047d24     LIBCMT:undname.obj
 0002:0000ed30       ??_C@_08GHMPAG@__pascal?$AA@ 10047d30     LIBCMT:undname.obj
 0002:0000ed3c       ??_C@_07KOLFKCDI@__cdecl?$AA@ 10047d3c     LIBCMT:undname.obj
 0002:0000ed44       ??_C@_08EHJDFFNH@__based?$CI?$AA@ 10047d44     LIBCMT:undname.obj
 0002:0000eed0       ??_C@_0BI@DFKBFLJE@GetProcessWindowStation?$AA@ 10047ed0     LIBCMT:crtmbox.obj
 0002:0000eee8       ??_C@_0BK@CIDNPOGP@GetUserObjectInformationA?$AA@ 10047ee8     LIBCMT:crtmbox.obj
 0002:0000ef04       ??_C@_0BD@HHGDFDBJ@GetLastActivePopup?$AA@ 10047f04     LIBCMT:crtmbox.obj
 0002:0000ef18       ??_C@_0BA@HNOPNCHB@GetActiveWindow?$AA@ 10047f18     LIBCMT:crtmbox.obj
 0002:0000ef28       ??_C@_0M@CHKKJDAI@MessageBoxA?$AA@ 10047f28     LIBCMT:crtmbox.obj
 0002:0000ef34       ??_C@_0L@NDEGIDAG@USER32?4DLL?$AA@ 10047f34     LIBCMT:crtmbox.obj
 0002:0000ef40       ??_C@_0L@KDOEJCKC@_nextafter?$AA@ 10047f40     LIBCMT:_fpexcept_.obj
 0002:0000ef4c       ??_C@_05JGDBENOH@_logb?$AA@ 10047f4c     LIBCMT:_fpexcept_.obj
 0002:0000ef54       ??_C@_03ONILCKOB@_yn?$AA@  10047f54     LIBCMT:_fpexcept_.obj
 0002:0000ef58       ??_C@_03NAKIGLHK@_y1?$AA@  10047f58     LIBCMT:_fpexcept_.obj
 0002:0000ef5c       ??_C@_03MJLDFKDL@_y0?$AA@  10047f5c     LIBCMT:_fpexcept_.obj
 0002:0000ef60       ??_C@_05GKKHEGJL@frexp?$AA@ 10047f60     LIBCMT:_fpexcept_.obj
 0002:0000ef68       ??_C@_04KEPJIHGP@fmod?$AA@ 10047f68     LIBCMT:_fpexcept_.obj
 0002:0000ef70       ??_C@_06MEIMCGCF@_hypot?$AA@ 10047f70     LIBCMT:_fpexcept_.obj
 0002:0000ef78       ??_C@_05KBKMEMPO@_cabs?$AA@ 10047f78     LIBCMT:_fpexcept_.obj
 0002:0000ef80       ??_C@_05CEJMAHNP@ldexp?$AA@ 10047f80     LIBCMT:_fpexcept_.obj
 0002:0000ef88       ??_C@_04ODHECPBC@fabs?$AA@ 10047f88     LIBCMT:_fpexcept_.obj
 0002:0000ef90       ??_C@_04EIAKFFMI@sqrt?$AA@ 10047f90     LIBCMT:_fpexcept_.obj
 0002:0000ef98       ??_C@_05KNGEOGJB@atan2?$AA@ 10047f98     LIBCMT:_fpexcept_.obj
 0002:0000efa0       ??_C@_04FJHINJAO@tanh?$AA@ 10047fa0     LIBCMT:_fpexcept_.obj
 0002:0000efa8       ??_C@_04HPJJNFIM@cosh?$AA@ 10047fa8     LIBCMT:_fpexcept_.obj
 0002:0000efb0       ??_C@_04COOMCNPB@sinh?$AA@ 10047fb0     LIBCMT:_fpexcept_.obj
 0002:0000efb8       ___newctype                10047fb8     LIBCMT:ctype.obj
 0002:0000f2b8       __wctype                   100482b8     LIBCMT:ctype.obj
 0002:0000f4c0       ___newclmap                100484c0     LIBCMT:ctype.obj
 0002:0000f640       ___newcumap                10048640     LIBCMT:ctype.obj
 0002:0000f7c0       ??_C@_08JCCMCCIL@HH?3mm?3ss?$AA@ 100487c0     LIBCMT:strftime.obj
 0002:0000f7cc       ??_C@_0BE@CKGJFCPC@dddd?0?5MMMM?5dd?0?5yyyy?$AA@ 100487cc     LIBCMT:strftime.obj
 0002:0000f7e0       ??_C@_08BPBNCDIB@MM?1dd?1yy?$AA@ 100487e0     LIBCMT:strftime.obj
 0002:0000f7ec       ??_C@_02CJNFDJBF@PM?$AA@   100487ec     LIBCMT:strftime.obj
 0002:0000f7f0       ??_C@_02DEDBPAFC@AM?$AA@   100487f0     LIBCMT:strftime.obj
 0002:0000f7f4       ??_C@_08EDHMEBNP@December?$AA@ 100487f4     LIBCMT:strftime.obj
 0002:0000f800       ??_C@_08HCHEGEOA@November?$AA@ 10048800     LIBCMT:strftime.obj
 0002:0000f80c       ??_C@_07JJNFCEND@October?$AA@ 1004880c     LIBCMT:strftime.obj
 0002:0000f814       ??_C@_09BHHEALKD@September?$AA@ 10048814     LIBCMT:strftime.obj
 0002:0000f820       ??_C@_06LBBHFDDG@August?$AA@ 10048820     LIBCMT:strftime.obj
 0002:0000f828       ??_C@_04MIEPOIFP@July?$AA@ 10048828     LIBCMT:strftime.obj
 0002:0000f830       ??_C@_04CNLMGBGM@June?$AA@ 10048830     LIBCMT:strftime.obj
 0002:0000f838       ??_C@_05DMJDNLEJ@April?$AA@ 10048838     LIBCMT:strftime.obj
 0002:0000f840       ??_C@_05HPCKOFNC@March?$AA@ 10048840     LIBCMT:strftime.obj
 0002:0000f848       ??_C@_08GNJGEPFN@February?$AA@ 10048848     LIBCMT:strftime.obj
 0002:0000f854       ??_C@_07CGJPFGJA@January?$AA@ 10048854     LIBCMT:strftime.obj
 0002:0000f85c       ??_C@_03MKABNOCG@Dec?$AA@  1004885c     LIBCMT:strftime.obj
 0002:0000f860       ??_C@_03JPJOFNIA@Nov?$AA@  10048860     LIBCMT:strftime.obj
 0002:0000f864       ??_C@_03BMAOKBAD@Oct?$AA@  10048864     LIBCMT:strftime.obj
 0002:0000f868       ??_C@_03GGCAPAJC@Sep?$AA@  10048868     LIBCMT:strftime.obj
 0002:0000f86c       ??_C@_03IFJFEIGA@Aug?$AA@  1004886c     LIBCMT:strftime.obj
 0002:0000f870       ??_C@_03LBGABGKK@Jul?$AA@  10048870     LIBCMT:strftime.obj
 0002:0000f874       ??_C@_03IDFGHECI@Jun?$AA@  10048874     LIBCMT:strftime.obj
 0002:0000f878       ??_C@_03CNMDKL@May?$AA@    10048878     LIBCMT:strftime.obj
 0002:0000f87c       ??_C@_03LEOLGMJP@Apr?$AA@  1004887c     LIBCMT:strftime.obj
 0002:0000f880       ??_C@_03ODNJBKGA@Mar?$AA@  10048880     LIBCMT:strftime.obj
 0002:0000f884       ??_C@_03HJBDCHOM@Feb?$AA@  10048884     LIBCMT:strftime.obj
 0002:0000f888       ??_C@_03JIHJHPIE@Jan?$AA@  10048888     LIBCMT:strftime.obj
 0002:0000f88c       ??_C@_08INBOOONO@Saturday?$AA@ 1004888c     LIBCMT:strftime.obj
 0002:0000f898       ??_C@_06JECMNKMI@Friday?$AA@ 10048898     LIBCMT:strftime.obj
 0002:0000f8a0       ??_C@_08HACCIKIA@Thursday?$AA@ 100488a0     LIBCMT:strftime.obj
 0002:0000f8ac       ??_C@_09DLIGFAKA@Wednesday?$AA@ 100488ac     LIBCMT:strftime.obj
 0002:0000f8b8       ??_C@_07BAAGCFCM@Tuesday?$AA@ 100488b8     LIBCMT:strftime.obj
 0002:0000f8c0       ??_C@_06JLEDEDGH@Monday?$AA@ 100488c0     LIBCMT:strftime.obj
 0002:0000f8c8       ??_C@_06OOPIFAJ@Sunday?$AA@ 100488c8     LIBCMT:strftime.obj
 0002:0000f8d0       ??_C@_03FEFJNEK@Sat?$AA@   100488d0     LIBCMT:strftime.obj
 0002:0000f8d4       ??_C@_03IDIOELNC@Fri?$AA@  100488d4     LIBCMT:strftime.obj
 0002:0000f8d8       ??_C@_03IOFIKPDN@Thu?$AA@  100488d8     LIBCMT:strftime.obj
 0002:0000f8dc       ??_C@_03MHOMLAJA@Wed?$AA@  100488dc     LIBCMT:strftime.obj
 0002:0000f8e0       ??_C@_03NAGEINEP@Tue?$AA@  100488e0     LIBCMT:strftime.obj
 0002:0000f8e4       ??_C@_03PDAGKDH@Mon?$AA@   100488e4     LIBCMT:strftime.obj
 0002:0000f8e8       ??_C@_03KOEHGMDN@Sun?$AA@  100488e8     LIBCMT:strftime.obj
 0002:0000f8f4       ??_C@_06IMKFLFPG@1?$CDQNAN?$AA@ 100488f4     LIBCMT:_x10fout_.obj
 0002:0000f8fc       ??_C@_05DNEBIAHO@1?$CDINF?$AA@ 100488fc     LIBCMT:_x10fout_.obj
 0002:0000f904       ??_C@_05PHHOCPM@1?$CDIND?$AA@ 10048904     LIBCMT:_x10fout_.obj
 0002:0000f90c       ??_C@_06PGGFOGJG@1?$CDSNAN?$AA@ 1004890c     LIBCMT:_x10fout_.obj
 0002:0000f914       ___dnames                  10048914     LIBCMT:timeset.obj
 0002:0000f92c       ___mnames                  1004892c     LIBCMT:timeset.obj
 0002:0000f954       ??_C@_07GPDNMNG@CONOUT$?$AA@ 10048954     LIBCMT:initcon.obj
 0002:0000f960       ___lookuptable_s           10048960     LIBCMT:outputs.obj
 0002:0000f9c0       __load_config_used         100489c0     LIBCMT:loadcfg.obj
 0002:0000fa6c       ??_R4CShader@SDK_Aftershock@@6B@ 10048a6c     aftershock.obj
 0002:0000fa80       ??_R3CShader@SDK_Aftershock@@8 10048a80     aftershock.obj
 0002:0000fa90       ??_R2CShader@SDK_Aftershock@@8 10048a90     aftershock.obj
 0002:0000faa0       ??_R1A@?0A@EA@CShader@SDK_Aftershock@@8 10048aa0     aftershock.obj
 0002:0000fabc       ??_R1A@?0A@EA@CBaseShader@@8 10048abc     aftershock.obj
 0002:0000fad8       ??_R3CBaseShader@@8        10048ad8     aftershock.obj
 0002:0000fae8       ??_R2CBaseShader@@8        10048ae8     aftershock.obj
 0002:0000faf4       ??_R1A@?0A@EA@IShader@@8   10048af4     aftershock.obj
 0002:0000fb10       ??_R3IShader@@8            10048b10     aftershock.obj
 0002:0000fb20       ??_R2IShader@@8            10048b20     aftershock.obj
 0002:0000fb28       ??_R3CBaseVSShader@@8      10048b28     aftershock.obj
 0002:0000fb38       ??_R2CBaseVSShader@@8      10048b38     aftershock.obj
 0002:0000fb48       ??_R1A@?0A@EA@CBaseVSShader@@8 10048b48     aftershock.obj
 0002:0000fb64       ??_R4CShader@SDK_Aftershock_dx9@@6B@ 10048b64     aftershock.obj
 0002:0000fb78       ??_R3CShader@SDK_Aftershock_dx9@@8 10048b78     aftershock.obj
 0002:0000fb88       ??_R2CShader@SDK_Aftershock_dx9@@8 10048b88     aftershock.obj
 0002:0000fb9c       ??_R1A@?0A@EA@CShader@SDK_Aftershock_dx9@@8 10048b9c     aftershock.obj
 0002:0000fbb8       ??_R4CShader@SDK_Bloom@@6B@ 10048bb8     Bloom.obj
 0002:0000fbcc       ??_R3CShader@SDK_Bloom@@8  10048bcc     Bloom.obj
 0002:0000fbdc       ??_R2CShader@SDK_Bloom@@8  10048bdc     Bloom.obj
 0002:0000fbf0       ??_R1A@?0A@EA@CShader@SDK_Bloom@@8 10048bf0     Bloom.obj
 0002:0000fc0c       ??_R4CShader@SDK_Cable@@6B@ 10048c0c     cable_dx9.obj
 0002:0000fc20       ??_R3CShader@SDK_Cable@@8  10048c20     cable_dx9.obj
 0002:0000fc30       ??_R2CShader@SDK_Cable@@8  10048c30     cable_dx9.obj
 0002:0000fc40       ??_R1A@?0A@EA@CShader@SDK_Cable@@8 10048c40     cable_dx9.obj
 0002:0000fc5c       ??_R4CShader@SDK_Cable_DX9@@6B@ 10048c5c     cable_dx9.obj
 0002:0000fc70       ??_R3CShader@SDK_Cable_DX9@@8 10048c70     cable_dx9.obj
 0002:0000fc80       ??_R2CShader@SDK_Cable_DX9@@8 10048c80     cable_dx9.obj
 0002:0000fc94       ??_R1A@?0A@EA@CShader@SDK_Cable_DX9@@8 10048c94     cable_dx9.obj
 0002:0000fcb0       ??_R4CShader@SDK_Core@@6B@ 10048cb0     core_dx9.obj
 0002:0000fcc4       ??_R3CShader@SDK_Core@@8   10048cc4     core_dx9.obj
 0002:0000fcd4       ??_R2CShader@SDK_Core@@8   10048cd4     core_dx9.obj
 0002:0000fce4       ??_R1A@?0A@EA@CShader@SDK_Core@@8 10048ce4     core_dx9.obj
 0002:0000fd00       ??_R4CShader@SDK_Core_DX90@@6B@ 10048d00     core_dx9.obj
 0002:0000fd14       ??_R3CShader@SDK_Core_DX90@@8 10048d14     core_dx9.obj
 0002:0000fd24       ??_R2CShader@SDK_Core_DX90@@8 10048d24     core_dx9.obj
 0002:0000fd38       ??_R1A@?0A@EA@CShader@SDK_Core_DX90@@8 10048d38     core_dx9.obj
 0002:0000fd54       ??_R4CShader@SDK_DepthWrite@@6B@ 10048d54     dx8fallbacks.obj
 0002:0000fd68       ??_R3CShader@SDK_DepthWrite@@8 10048d68     dx8fallbacks.obj
 0002:0000fd78       ??_R2CShader@SDK_DepthWrite@@8 10048d78     dx8fallbacks.obj
 0002:0000fd88       ??_R1A@?0A@EA@CShader@SDK_DepthWrite@@8 10048d88     dx8fallbacks.obj
 0002:0000fda4       ??_R4CShader@SDK_EyeRefract@@6B@ 10048da4     dx8fallbacks.obj
 0002:0000fdb8       ??_R3CShader@SDK_EyeRefract@@8 10048db8     dx8fallbacks.obj
 0002:0000fdc8       ??_R2CShader@SDK_EyeRefract@@8 10048dc8     dx8fallbacks.obj
 0002:0000fdd8       ??_R1A@?0A@EA@CShader@SDK_EyeRefract@@8 10048dd8     dx8fallbacks.obj
 0002:0000fdf4       ??_R4CShader@SDK_VolumeClouds@@6B@ 10048df4     dx8fallbacks.obj
 0002:0000fe08       ??_R3CShader@SDK_VolumeClouds@@8 10048e08     dx8fallbacks.obj
 0002:0000fe18       ??_R2CShader@SDK_VolumeClouds@@8 10048e18     dx8fallbacks.obj
 0002:0000fe28       ??_R1A@?0A@EA@CShader@SDK_VolumeClouds@@8 10048e28     dx8fallbacks.obj
 0002:0000fe44       ??_R4CShader@SDK_EyeGlint@@6B@ 10048e44     dx8fallbacks.obj
 0002:0000fe58       ??_R3CShader@SDK_EyeGlint@@8 10048e58     dx8fallbacks.obj
 0002:0000fe68       ??_R2CShader@SDK_EyeGlint@@8 10048e68     dx8fallbacks.obj
 0002:0000fe78       ??_R1A@?0A@EA@CShader@SDK_EyeGlint@@8 10048e78     dx8fallbacks.obj
 0002:0000fe94       ??_R4CShader@SDK_AfterShock@@6B@ 10048e94     dx8fallbacks.obj
 0002:0000fea8       ??_R3CShader@SDK_AfterShock@@8 10048ea8     dx8fallbacks.obj
 0002:0000feb8       ??_R2CShader@SDK_AfterShock@@8 10048eb8     dx8fallbacks.obj
 0002:0000fec8       ??_R1A@?0A@EA@CShader@SDK_AfterShock@@8 10048ec8     dx8fallbacks.obj
 0002:0000fee4       ??_R4CShader@SDK_EyeRefract_dx9@@6B@ 10048ee4     eye_refract.obj
 0002:0000fef8       ??_R3CShader@SDK_EyeRefract_dx9@@8 10048ef8     eye_refract.obj
 0002:0000ff08       ??_R2CShader@SDK_EyeRefract_dx9@@8 10048f08     eye_refract.obj
 0002:0000ff1c       ??_R1A@?0A@EA@CShader@SDK_EyeRefract_dx9@@8 10048f1c     eye_refract.obj
 0002:0000ff38       ??_R4CShader@SDK_Eyeball@@6B@ 10048f38     eyeball.obj
 0002:0000ff4c       ??_R3CShader@SDK_Eyeball@@8 10048f4c     eyeball.obj
 0002:0000ff5c       ??_R2CShader@SDK_Eyeball@@8 10048f5c     eyeball.obj
 0002:0000ff70       ??_R1A@?0A@EA@CShader@SDK_Eyeball@@8 10048f70     eyeball.obj
 0002:0000ff8c       ??_R4CShader@SDK_EyeGlint_dx9@@6B@ 10048f8c     eyeglint_dx9.obj
 0002:0000ffa0       ??_R3CShader@SDK_EyeGlint_dx9@@8 10048fa0     eyeglint_dx9.obj
 0002:0000ffb0       ??_R2CShader@SDK_EyeGlint_dx9@@8 10048fb0     eyeglint_dx9.obj
 0002:0000ffc4       ??_R1A@?0A@EA@CShader@SDK_EyeGlint_dx9@@8 10048fc4     eyeglint_dx9.obj
 0002:0000ffe0       ??_R4CShader@SDK_eyes@@6B@ 10048fe0     eyes.obj
 0002:0000fff4       ??_R3CShader@SDK_eyes@@8   10048ff4     eyes.obj
 0002:00010004       ??_R2CShader@SDK_eyes@@8   10049004     eyes.obj
 0002:00010014       ??_R1A@?0A@EA@CShader@SDK_eyes@@8 10049014     eyes.obj
 0002:00010030       ??_R4CShader@SDK_Eyes_dx8@@6B@ 10049030     eyes.obj
 0002:00010044       ??_R3CShader@SDK_Eyes_dx8@@8 10049044     eyes.obj
 0002:00010054       ??_R2CShader@SDK_Eyes_dx8@@8 10049054     eyes.obj
 0002:00010068       ??_R1A@?0A@EA@CShader@SDK_Eyes_dx8@@8 10049068     eyes.obj
 0002:00010084       ??_R4CShader@SDK_Eyes_dx9@@6B@ 10049084     eyes_dx9.obj
 0002:00010098       ??_R3CShader@SDK_Eyes_dx9@@8 10049098     eyes_dx9.obj
 0002:000100a8       ??_R2CShader@SDK_Eyes_dx9@@8 100490a8     eyes_dx9.obj
 0002:000100bc       ??_R1A@?0A@EA@CShader@SDK_Eyes_dx9@@8 100490bc     eyes_dx9.obj
 0002:000100d8       ??_R4CShader@SDK_LightmappedGeneric_Decal@@6B@ 100490d8     lightmappedgeneric_decal.obj
 0002:000100ec       ??_R3CShader@SDK_LightmappedGeneric_Decal@@8 100490ec     lightmappedgeneric_decal.obj
 0002:000100fc       ??_R2CShader@SDK_LightmappedGeneric_Decal@@8 100490fc     lightmappedgeneric_decal.obj
 0002:00010110       ??_R1A@?0A@EA@CShader@SDK_LightmappedGeneric_Decal@@8 10049110     lightmappedgeneric_decal.obj
 0002:0001012c       ??_R4CShader@SDK_LightmappedGeneric_DX9@@6B@ 1004912c     lightmappedgeneric_dx9.obj
 0002:00010140       ??_R3CShader@SDK_LightmappedGeneric_DX9@@8 10049140     lightmappedgeneric_dx9.obj
 0002:00010150       ??_R2CShader@SDK_LightmappedGeneric_DX9@@8 10049150     lightmappedgeneric_dx9.obj
 0002:00010164       ??_R1A@?0A@EA@CShader@SDK_LightmappedGeneric_DX9@@8 10049164     lightmappedgeneric_dx9.obj
 0002:00010180       ??_R4CBasePerMaterialContextData@@6B@ 10049180     lightmappedgeneric_dx9_helper.obj
 0002:00010194       ??_R3CBasePerMaterialContextData@@8 10049194     lightmappedgeneric_dx9_helper.obj
 0002:000101a4       ??_R2CBasePerMaterialContextData@@8 100491a4     lightmappedgeneric_dx9_helper.obj
 0002:000101ac       ??_R1A@?0A@EA@CBasePerMaterialContextData@@8 100491ac     lightmappedgeneric_dx9_helper.obj
 0002:000101c8       ??_R4CLightmappedGeneric_DX9_Context@@6B@ 100491c8     lightmappedgeneric_dx9_helper.obj
 0002:000101dc       ??_R3CLightmappedGeneric_DX9_Context@@8 100491dc     lightmappedgeneric_dx9_helper.obj
 0002:000101ec       ??_R2CLightmappedGeneric_DX9_Context@@8 100491ec     lightmappedgeneric_dx9_helper.obj
 0002:000101f8       ??_R1A@?0A@EA@CLightmappedGeneric_DX9_Context@@8 100491f8     lightmappedgeneric_dx9_helper.obj
 0002:00010214       ??_R4CShader@SDK_LightmappedReflective@@6B@ 10049214     lightmappedreflective.obj
 0002:00010228       ??_R3CShader@SDK_LightmappedReflective@@8 10049228     lightmappedreflective.obj
 0002:00010238       ??_R2CShader@SDK_LightmappedReflective@@8 10049238     lightmappedreflective.obj
 0002:00010248       ??_R1A@?0A@EA@CShader@SDK_LightmappedReflective@@8 10049248     lightmappedreflective.obj
 0002:00010264       ??_R4CShader@SDK_LightmappedReflective_DX90@@6B@ 10049264     lightmappedreflective.obj
 0002:00010278       ??_R3CShader@SDK_LightmappedReflective_DX90@@8 10049278     lightmappedreflective.obj
 0002:00010288       ??_R2CShader@SDK_LightmappedReflective_DX90@@8 10049288     lightmappedreflective.obj
 0002:0001029c       ??_R1A@?0A@EA@CShader@SDK_LightmappedReflective_DX90@@8 1004929c     lightmappedreflective.obj
 0002:000102b8       ??_R4CShader@SDK_LightmappedTwoTexture@@6B@ 100492b8     lightmappedtwotexture.obj
 0002:000102cc       ??_R3CShader@SDK_LightmappedTwoTexture@@8 100492cc     lightmappedtwotexture.obj
 0002:000102dc       ??_R2CShader@SDK_LightmappedTwoTexture@@8 100492dc     lightmappedtwotexture.obj
 0002:000102ec       ??_R1A@?0A@EA@CShader@SDK_LightmappedTwoTexture@@8 100492ec     lightmappedtwotexture.obj
 0002:00010308       ??_R4CShader@SDK_Refract@@6B@ 10049308     refract.obj
 0002:0001031c       ??_R3CShader@SDK_Refract@@8 1004931c     refract.obj
 0002:0001032c       ??_R2CShader@SDK_Refract@@8 1004932c     refract.obj
 0002:0001033c       ??_R1A@?0A@EA@CShader@SDK_Refract@@8 1004933c     refract.obj
 0002:00010358       ??_R4CShader@SDK_Refract_DX90@@6B@ 10049358     refract.obj
 0002:0001036c       ??_R3CShader@SDK_Refract_DX90@@8 1004936c     refract.obj
 0002:0001037c       ??_R2CShader@SDK_Refract_DX90@@8 1004937c     refract.obj
 0002:00010390       ??_R1A@?0A@EA@CShader@SDK_Refract_DX90@@8 10049390     refract.obj
 0002:000103ac       ??_R4CShader@SDK_screenspace_general@@6B@ 100493ac     screenspace_general.obj
 0002:000103c0       ??_R3CShader@SDK_screenspace_general@@8 100493c0     screenspace_general.obj
 0002:000103d0       ??_R2CShader@SDK_screenspace_general@@8 100493d0     screenspace_general.obj
 0002:000103e0       ??_R1A@?0A@EA@CShader@SDK_screenspace_general@@8 100493e0     screenspace_general.obj
 0002:000103fc       ??_R4CShader@SDK_screenspace_general_dx9@@6B@ 100493fc     screenspace_general.obj
 0002:00010410       ??_R3CShader@SDK_screenspace_general_dx9@@8 10049410     screenspace_general.obj
 0002:00010420       ??_R2CShader@SDK_screenspace_general_dx9@@8 10049420     screenspace_general.obj
 0002:00010434       ??_R1A@?0A@EA@CShader@SDK_screenspace_general_dx9@@8 10049434     screenspace_general.obj
 0002:00010450       ??_R4CShader@SDK_Spritecard@@6B@ 10049450     spritecard.obj
 0002:00010464       ??_R3CShader@SDK_Spritecard@@8 10049464     spritecard.obj
 0002:00010474       ??_R2CShader@SDK_Spritecard@@8 10049474     spritecard.obj
 0002:00010488       ??_R1A@?0A@EA@CShader@SDK_Spritecard@@8 10049488     spritecard.obj
 0002:000104a4       ??_R4CShader@SDK_Teeth@@6B@ 100494a4     teeth.obj
 0002:000104b8       ??_R3CShader@SDK_Teeth@@8  100494b8     teeth.obj
 0002:000104c8       ??_R2CShader@SDK_Teeth@@8  100494c8     teeth.obj
 0002:000104d8       ??_R1A@?0A@EA@CShader@SDK_Teeth@@8 100494d8     teeth.obj
 0002:000104f4       ??_R4CShader@SDK_Teeth_DX9@@6B@ 100494f4     teeth.obj
 0002:00010508       ??_R3CShader@SDK_Teeth_DX9@@8 10049508     teeth.obj
 0002:00010518       ??_R2CShader@SDK_Teeth_DX9@@8 10049518     teeth.obj
 0002:0001052c       ??_R1A@?0A@EA@CShader@SDK_Teeth_DX9@@8 1004952c     teeth.obj
 0002:00010548       ??_R4CShader@SDK_UnlitGeneric@@6B@ 10049548     unlitgeneric_dx9.obj
 0002:0001055c       ??_R3CShader@SDK_UnlitGeneric@@8 1004955c     unlitgeneric_dx9.obj
 0002:0001056c       ??_R2CShader@SDK_UnlitGeneric@@8 1004956c     unlitgeneric_dx9.obj
 0002:00010580       ??_R1A@?0A@EA@CShader@SDK_UnlitGeneric@@8 10049580     unlitgeneric_dx9.obj
 0002:0001059c       ??_R4CShader@SDK_UnlitTwoTexture@@6B@ 1004959c     unlittwotexture_dx9.obj
 0002:000105b0       ??_R3CShader@SDK_UnlitTwoTexture@@8 100495b0     unlittwotexture_dx9.obj
 0002:000105c0       ??_R2CShader@SDK_UnlitTwoTexture@@8 100495c0     unlittwotexture_dx9.obj
 0002:000105d0       ??_R1A@?0A@EA@CShader@SDK_UnlitTwoTexture@@8 100495d0     unlittwotexture_dx9.obj
 0002:000105ec       ??_R4CShader@SDK_UnlitTwoTexture_DX9@@6B@ 100495ec     unlittwotexture_dx9.obj
 0002:00010600       ??_R3CShader@SDK_UnlitTwoTexture_DX9@@8 10049600     unlittwotexture_dx9.obj
 0002:00010610       ??_R2CShader@SDK_UnlitTwoTexture_DX9@@8 10049610     unlittwotexture_dx9.obj
 0002:00010624       ??_R1A@?0A@EA@CShader@SDK_UnlitTwoTexture_DX9@@8 10049624     unlittwotexture_dx9.obj
 0002:00010640       ??_R4CShader@SDK_VertexLitGeneric@@6B@ 10049640     vertexlitgeneric_dx9.obj
 0002:00010654       ??_R3CShader@SDK_VertexLitGeneric@@8 10049654     vertexlitgeneric_dx9.obj
 0002:00010664       ??_R2CShader@SDK_VertexLitGeneric@@8 10049664     vertexlitgeneric_dx9.obj
 0002:00010678       ??_R1A@?0A@EA@CShader@SDK_VertexLitGeneric@@8 10049678     vertexlitgeneric_dx9.obj
 0002:00010694       ??_R4CVertexLitGeneric_DX9_Context@@6B@ 10049694     vertexlitgeneric_dx9_helper.obj
 0002:000106a8       ??_R3CVertexLitGeneric_DX9_Context@@8 100496a8     vertexlitgeneric_dx9_helper.obj
 0002:000106b8       ??_R2CVertexLitGeneric_DX9_Context@@8 100496b8     vertexlitgeneric_dx9_helper.obj
 0002:000106c4       ??_R1A@?0A@EA@CVertexLitGeneric_DX9_Context@@8 100496c4     vertexlitgeneric_dx9_helper.obj
 0002:000106e0       ??_R4CShader@SDK_VortWarp@@6B@ 100496e0     vortwarp_dx9.obj
 0002:000106f4       ??_R3CShader@SDK_VortWarp@@8 100496f4     vortwarp_dx9.obj
 0002:00010704       ??_R2CShader@SDK_VortWarp@@8 10049704     vortwarp_dx9.obj
 0002:00010714       ??_R1A@?0A@EA@CShader@SDK_VortWarp@@8 10049714     vortwarp_dx9.obj
 0002:00010730       ??_R4CShader@SDK_VortWarp_DX9@@6B@ 10049730     vortwarp_dx9.obj
 0002:00010744       ??_R3CShader@SDK_VortWarp_DX9@@8 10049744     vortwarp_dx9.obj
 0002:00010754       ??_R2CShader@SDK_VortWarp_DX9@@8 10049754     vortwarp_dx9.obj
 0002:00010768       ??_R1A@?0A@EA@CShader@SDK_VortWarp_DX9@@8 10049768     vortwarp_dx9.obj
 0002:00010784       ??_R4CShader@SDK_Water@@6B@ 10049784     water.obj
 0002:00010798       ??_R3CShader@SDK_Water@@8  10049798     water.obj
 0002:000107a8       ??_R2CShader@SDK_Water@@8  100497a8     water.obj
 0002:000107b8       ??_R1A@?0A@EA@CShader@SDK_Water@@8 100497b8     water.obj
 0002:000107d4       ??_R4CShader@SDK_Water_DX90@@6B@ 100497d4     water.obj
 0002:000107e8       ??_R3CShader@SDK_Water_DX90@@8 100497e8     water.obj
 0002:000107f8       ??_R2CShader@SDK_Water_DX90@@8 100497f8     water.obj
 0002:0001080c       ??_R1A@?0A@EA@CShader@SDK_Water_DX90@@8 1004980c     water.obj
 0002:00010828       ??_R4CShader@SDK_Water_DX9_HDR@SDK_Water_DX90@@6B@ 10049828     water.obj
 0002:0001083c       ??_R3CShader@SDK_Water_DX9_HDR@SDK_Water_DX90@@8 1004983c     water.obj
 0002:0001084c       ??_R2CShader@SDK_Water_DX9_HDR@SDK_Water_DX90@@8 1004984c     water.obj
 0002:00010864       ??_R1A@?0A@EA@CShader@SDK_Water_DX9_HDR@SDK_Water_DX90@@8 10049864     water.obj
 0002:00010880       ??_R4CShader@SDK_WorldTwoTextureBlend@@6B@ 10049880     worldtwotextureblend.obj
 0002:00010894       ??_R3CShader@SDK_WorldTwoTextureBlend@@8 10049894     worldtwotextureblend.obj
 0002:000108a4       ??_R2CShader@SDK_WorldTwoTextureBlend@@8 100498a4     worldtwotextureblend.obj
 0002:000108b8       ??_R1A@?0A@EA@CShader@SDK_WorldTwoTextureBlend@@8 100498b8     worldtwotextureblend.obj
 0002:000108d4       ??_R4CShader@SDK_WorldVertexAlpha@@6B@ 100498d4     worldvertexalpha.obj
 0002:000108e8       ??_R3CShader@SDK_WorldVertexAlpha@@8 100498e8     worldvertexalpha.obj
 0002:000108f8       ??_R2CShader@SDK_WorldVertexAlpha@@8 100498f8     worldvertexalpha.obj
 0002:0001090c       ??_R1A@?0A@EA@CShader@SDK_WorldVertexAlpha@@8 1004990c     worldvertexalpha.obj
 0002:00010928       ??_R4CShader@SDK_WorldVertexTransition@@6B@ 10049928     worldvertextransition.obj
 0002:0001093c       ??_R3CShader@SDK_WorldVertexTransition@@8 1004993c     worldvertextransition.obj
 0002:0001094c       ??_R2CShader@SDK_WorldVertexTransition@@8 1004994c     worldvertextransition.obj
 0002:0001095c       ??_R1A@?0A@EA@CShader@SDK_WorldVertexTransition@@8 1004995c     worldvertextransition.obj
 0002:00010978       ??_R4CShader@SDK_WorldVertexTransition_DX9@@6B@ 10049978     worldvertextransition.obj
 0002:0001098c       ??_R3CShader@SDK_WorldVertexTransition_DX9@@8 1004998c     worldvertextransition.obj
 0002:0001099c       ??_R2CShader@SDK_WorldVertexTransition_DX9@@8 1004999c     worldvertextransition.obj
 0002:000109b0       ??_R1A@?0A@EA@CShader@SDK_WorldVertexTransition_DX9@@8 100499b0     worldvertextransition.obj
 0002:000109cc       ??_R3IShaderDLLVerification@@8 100499cc     shader_dll_verify.obj
 0002:000109dc       ??_R2IShaderDLLVerification@@8 100499dc     shader_dll_verify.obj
 0002:000109e4       ??_R1A@?0A@EA@IShaderDLLVerification@@8 100499e4     shader_dll_verify.obj
 0002:00010a00       ??_R4CShaderDLLVerification@@6B@ 10049a00     shader_dll_verify.obj
 0002:00010a14       ??_R3CShaderDLLVerification@@8 10049a14     shader_dll_verify.obj
 0002:00010a24       ??_R2CShaderDLLVerification@@8 10049a24     shader_dll_verify.obj
 0002:00010a30       ??_R1A@?0A@EA@CShaderDLLVerification@@8 10049a30     shader_dll_verify.obj
 0002:00010a4c       ??_R4CShader@Void_CelShadeLightmapped@@6B@ 10049a4c     void_celshadelightmapped.obj
 0002:00010a60       ??_R3CShader@Void_CelShadeLightmapped@@8 10049a60     void_celshadelightmapped.obj
 0002:00010a70       ??_R2CShader@Void_CelShadeLightmapped@@8 10049a70     void_celshadelightmapped.obj
 0002:00010a84       ??_R1A@?0A@EA@CShader@Void_CelShadeLightmapped@@8 10049a84     void_celshadelightmapped.obj
 0002:00010aa0       ??_R4CShader@void_postblur@@6B@ 10049aa0     void_postblur.obj
 0002:00010ab4       ??_R3CShader@void_postblur@@8 10049ab4     void_postblur.obj
 0002:00010ac4       ??_R2CShader@void_postblur@@8 10049ac4     void_postblur.obj
 0002:00010ad8       ??_R1A@?0A@EA@CShader@void_postblur@@8 10049ad8     void_postblur.obj
 0002:00010af4       ??_R4CShader@Void_PostComposite@@6B@ 10049af4     void_postcomposite.obj
 0002:00010b08       ??_R3CShader@Void_PostComposite@@8 10049b08     void_postcomposite.obj
 0002:00010b18       ??_R2CShader@Void_PostComposite@@8 10049b18     void_postcomposite.obj
 0002:00010b2c       ??_R1A@?0A@EA@CShader@Void_PostComposite@@8 10049b2c     void_postcomposite.obj
 0002:00010b48       ??_R4CShader@void_postgodray@@6B@ 10049b48     void_postgodray.obj
 0002:00010b5c       ??_R3CShader@void_postgodray@@8 10049b5c     void_postgodray.obj
 0002:00010b6c       ??_R2CShader@void_postgodray@@8 10049b6c     void_postgodray.obj
 0002:00010b80       ??_R1A@?0A@EA@CShader@void_postgodray@@8 10049b80     void_postgodray.obj
 0002:00010b9c       ??_R4CShader@void_postworldcomposite@@6B@ 10049b9c     void_postworldcomposite.obj
 0002:00010bb0       ??_R3CShader@void_postworldcomposite@@8 10049bb0     void_postworldcomposite.obj
 0002:00010bc0       ??_R2CShader@void_postworldcomposite@@8 10049bc0     void_postworldcomposite.obj
 0002:00010bd4       ??_R1A@?0A@EA@CShader@void_postworldcomposite@@8 10049bd4     void_postworldcomposite.obj
 0002:00010bf0       ??_R4CBaseShader@@6B@      10049bf0     shaderlib:BaseShader.obj
 0002:00010c04       ??_R3IShaderDLLInternal@@8 10049c04     shaderlib:ShaderDLL.obj
 0002:00010c14       ??_R2IShaderDLLInternal@@8 10049c14     shaderlib:ShaderDLL.obj
 0002:00010c1c       ??_R1A@?0A@EA@IShaderDLLInternal@@8 10049c1c     shaderlib:ShaderDLL.obj
 0002:00010c38       ??_R4IShaderDLL@@6B@       10049c38     shaderlib:ShaderDLL.obj
 0002:00010c4c       ??_R3IShaderDLL@@8         10049c4c     shaderlib:ShaderDLL.obj
 0002:00010c5c       ??_R2IShaderDLL@@8         10049c5c     shaderlib:ShaderDLL.obj
 0002:00010c64       ??_R1A@?0A@EA@IShaderDLL@@8 10049c64     shaderlib:ShaderDLL.obj
 0002:00010c80       ??_R4CShaderDLL@@6BIShaderDLLInternal@@@ 10049c80     shaderlib:ShaderDLL.obj
 0002:00010c94       ??_R3CShaderDLL@@8         10049c94     shaderlib:ShaderDLL.obj
 0002:00010ca4       ??_R2CShaderDLL@@8         10049ca4     shaderlib:ShaderDLL.obj
 0002:00010cb4       ??_R1A@?0A@EA@CShaderDLL@@8 10049cb4     shaderlib:ShaderDLL.obj
 0002:00010cd0       ??_R13?0A@EA@IShaderDLL@@8 10049cd0     shaderlib:ShaderDLL.obj
 0002:00010cec       ??_R4CShaderDLL@@6BIShaderDLL@@@ 10049cec     shaderlib:ShaderDLL.obj
 0002:00010d00       ??_R3IConCommandBaseAccessor@@8 10049d00     shaderlib:shaderlib_cvar.obj
 0002:00010d10       ??_R2IConCommandBaseAccessor@@8 10049d10     shaderlib:shaderlib_cvar.obj
 0002:00010d18       ??_R1A@?0A@EA@IConCommandBaseAccessor@@8 10049d18     shaderlib:shaderlib_cvar.obj
 0002:00010d34       ??_R4CShaderLibConVarAccessor@@6B@ 10049d34     shaderlib:shaderlib_cvar.obj
 0002:00010d48       ??_R3CShaderLibConVarAccessor@@8 10049d48     shaderlib:shaderlib_cvar.obj
 0002:00010d58       ??_R2CShaderLibConVarAccessor@@8 10049d58     shaderlib:shaderlib_cvar.obj
 0002:00010d64       ??_R1A@?0A@EA@CShaderLibConVarAccessor@@8 10049d64     shaderlib:shaderlib_cvar.obj
 0002:00010d80       ??_R4ConCommandBase@@6B@   10049d80     tier1:convar.obj
 0002:00010d94       ??_R3ConCommandBase@@8     10049d94     tier1:convar.obj
 0002:00010da4       ??_R2ConCommandBase@@8     10049da4     tier1:convar.obj
 0002:00010dac       ??_R1A@?0A@EA@ConCommandBase@@8 10049dac     tier1:convar.obj
 0002:00010dc8       ??_R4IConVar@@6B@          10049dc8     tier1:convar.obj
 0002:00010ddc       ??_R3IConVar@@8            10049ddc     tier1:convar.obj
 0002:00010dec       ??_R2IConVar@@8            10049dec     tier1:convar.obj
 0002:00010df4       ??_R1A@?0A@EA@IConVar@@8   10049df4     tier1:convar.obj
 0002:00010e10       ??_R4ConVar@@6BConCommandBase@@@ 10049e10     tier1:convar.obj
 0002:00010e24       ??_R3ConVar@@8             10049e24     tier1:convar.obj
 0002:00010e34       ??_R2ConVar@@8             10049e34     tier1:convar.obj
 0002:00010e44       ??_R1A@?0A@EA@ConVar@@8    10049e44     tier1:convar.obj
 0002:00010e60       ??_R1BI@?0A@EA@IConVar@@8  10049e60     tier1:convar.obj
 0002:00010e7c       ??_R4ConVar@@6BIConVar@@@  10049e7c     tier1:convar.obj
 0002:00010e90       ??_R4CDefaultAccessor@@6B@ 10049e90     tier1:convar.obj
 0002:00010ea4       ??_R3CDefaultAccessor@@8   10049ea4     tier1:convar.obj
 0002:00010eb4       ??_R2CDefaultAccessor@@8   10049eb4     tier1:convar.obj
 0002:00010ec0       ??_R1A@?0A@EA@CDefaultAccessor@@8 10049ec0     tier1:convar.obj
 0002:00010edc       ??_R4CEmptyConVar@@6BConCommandBase@@@ 10049edc     tier1:convar.obj
 0002:00010ef0       ??_R3CEmptyConVar@@8       10049ef0     tier1:convar.obj
 0002:00010f00       ??_R2CEmptyConVar@@8       10049f00     tier1:convar.obj
 0002:00010f14       ??_R1A@?0A@EA@CEmptyConVar@@8 10049f14     tier1:convar.obj
 0002:00010f30       ??_R4CEmptyConVar@@6BIConVar@@@ 10049f30     tier1:convar.obj
 0002:00010f44       ??_R4CUtlCharConversion@@6B@ 10049f44     tier1:utlbuffer.obj
 0002:00010f58       ??_R3CUtlCharConversion@@8 10049f58     tier1:utlbuffer.obj
 0002:00010f68       ??_R2CUtlCharConversion@@8 10049f68     tier1:utlbuffer.obj
 0002:00010f70       ??_R1A@?0A@EA@CUtlCharConversion@@8 10049f70     tier1:utlbuffer.obj
 0002:00010f8c       ??_R4CUtlNoEscConversion@@6B@ 10049f8c     tier1:utlbuffer.obj
 0002:00010fa0       ??_R3CUtlNoEscConversion@@8 10049fa0     tier1:utlbuffer.obj
 0002:00010fb0       ??_R2CUtlNoEscConversion@@8 10049fb0     tier1:utlbuffer.obj
 0002:00010fbc       ??_R1A@?0A@EA@CUtlNoEscConversion@@8 10049fbc     tier1:utlbuffer.obj
 0002:00010fd8       ??_R4CUtlCStringConversion@@6B@ 10049fd8     tier1:utlbuffer.obj
 0002:00010fec       ??_R3CUtlCStringConversion@@8 10049fec     tier1:utlbuffer.obj
 0002:00010ffc       ??_R2CUtlCStringConversion@@8 10049ffc     tier1:utlbuffer.obj
 0002:00011008       ??_R1A@?0A@EA@CUtlCStringConversion@@8 1004a008     tier1:utlbuffer.obj
 0002:00011024       ??_R4type_info@@6B@        1004a024     LIBCMT:typinfo.obj
 0002:00011038       ??_R3type_info@@8          1004a038     LIBCMT:typinfo.obj
 0002:00011048       ??_R2type_info@@8          1004a048     LIBCMT:typinfo.obj
 0002:00011050       ??_R1A@?0A@EA@type_info@@8 1004a050     LIBCMT:typinfo.obj
 0002:0001106c       ??_R4bad_alloc@std@@6B@    1004a06c     LIBCMT:new.obj
 0002:00011080       ??_R3bad_alloc@std@@8      1004a080     LIBCMT:new.obj
 0002:00011090       ??_R2bad_alloc@std@@8      1004a090     LIBCMT:new.obj
 0002:0001109c       ??_R1A@?0A@EA@bad_alloc@std@@8 1004a09c     LIBCMT:new.obj
 0002:000110b8       ??_R1A@?0A@EA@exception@std@@8 1004a0b8     LIBCMT:new.obj
 0002:000110d4       ??_R3exception@std@@8      1004a0d4     LIBCMT:new.obj
 0002:000110e4       ??_R2exception@std@@8      1004a0e4     LIBCMT:new.obj
 0002:000110ec       ??_R4exception@std@@6B@    1004a0ec     LIBCMT:stdexcpt.obj
 0002:00011100       ___safe_se_handler_table   1004a100     <linker-defined>
 0002:0001110c       ___rtc_iaa                 1004a10c     LIBCMT:_initsect_.obj
 0002:00011110       ___rtc_izz                 1004a110     LIBCMT:_initsect_.obj
 0002:00011114       ___rtc_taa                 1004a114     LIBCMT:_initsect_.obj
 0002:00011118       ___rtc_tzz                 1004a118     LIBCMT:_initsect_.obj
 0002:0001113c       __TI2?AVbad_alloc@std@@    1004a13c     LIBCMT:new.obj
 0002:0001114c       __CTA2?AVbad_alloc@std@@   1004a14c     LIBCMT:new.obj
 0002:00011158       __CT??_R0?AVbad_alloc@std@@@8??0bad_alloc@std@@QAE@ABV01@@Z12 1004a158     LIBCMT:new.obj
 0002:00011174       __CT??_R0?AVexception@std@@@8??0exception@std@@QAE@ABV01@@Z12 1004a174     LIBCMT:new.obj
 0002:00011544       __IMPORT_DESCRIPTOR_tier0  1004a544     tier0:tier0.dll
 0002:00011558       __IMPORT_DESCRIPTOR_KERNEL32 1004a558     kernel32:KERNEL32.dll
 0002:0001156c       __NULL_IMPORT_DESCRIPTOR   1004a56c     tier0:tier0.dll
 0003:00000130       ??_R0?AVCShader@SDK_Aftershock@@@8 1004b130     aftershock.obj
 0003:00000158       ??_R0?AVCBaseShader@@@8    1004b158     aftershock.obj
 0003:00000174       ??_R0?AVIShader@@@8        1004b174     aftershock.obj
 0003:0000018c       ??_R0?AVCBaseVSShader@@@8  1004b18c     aftershock.obj
 0003:000001a8       ??_R0?AVCShader@SDK_Aftershock_dx9@@@8 1004b1a8     aftershock.obj
 0003:00000258       ??_R0?AVCShader@SDK_Bloom@@@8 1004b258     Bloom.obj
 0003:000002e8       ??_R0?AVCShader@SDK_Cable@@@8 1004b2e8     cable_dx9.obj
 0003:00000308       ??_R0?AVCShader@SDK_Cable_DX9@@@8 1004b308     cable_dx9.obj
 0003:0000054c       ??_R0?AVCShader@SDK_Core@@@8 1004b54c     core_dx9.obj
 0003:0000056c       ??_R0?AVCShader@SDK_Core_DX90@@@8 1004b56c     core_dx9.obj
 0003:000005d0       ??_R0?AVCShader@SDK_DepthWrite@@@8 1004b5d0     dx8fallbacks.obj
 0003:000005f8       ??_R0?AVCShader@SDK_EyeRefract@@@8 1004b5f8     dx8fallbacks.obj
 0003:00000620       ??_R0?AVCShader@SDK_VolumeClouds@@@8 1004b620     dx8fallbacks.obj
 0003:00000648       ??_R0?AVCShader@SDK_EyeGlint@@@8 1004b648     dx8fallbacks.obj
 0003:0000066c       ??_R0?AVCShader@SDK_AfterShock@@@8 1004b66c     dx8fallbacks.obj
 0003:000009a4       ??_R0?AVCShader@SDK_EyeRefract_dx9@@@8 1004b9a4     eye_refract.obj
 0003:00000a38       ??_R0?AVCShader@SDK_Eyeball@@@8 1004ba38     eyeball.obj
 0003:00000a84       ??_R0?AVCShader@SDK_EyeGlint_dx9@@@8 1004ba84     eyeglint_dx9.obj
 0003:00000c84       ??_R0?AVCShader@SDK_eyes@@@8 1004bc84     eyes.obj
 0003:00000ca4       ??_R0?AVCShader@SDK_Eyes_dx8@@@8 1004bca4     eyes.obj
 0003:00000e40       ??_R0?AVCShader@SDK_Eyes_dx9@@@8 1004be40     eyes_dx9.obj
 0003:00000e9c       ??_R0?AVCShader@SDK_LightmappedGeneric_Decal@@@8 1004be9c     lightmappedgeneric_decal.obj
 0003:000012b0       ??_R0?AVCShader@SDK_LightmappedGeneric_DX9@@@8 1004c2b0     lightmappedgeneric_dx9.obj
 0003:000012e4       ??_R0?AVCBasePerMaterialContextData@@@8 1004c2e4     lightmappedgeneric_dx9_helper.obj
 0003:00001310       ??_R0?AVCLightmappedGeneric_DX9_Context@@@8 1004c310     lightmappedgeneric_dx9_helper.obj
 0003:000014d0       ??_R0?AVCShader@SDK_LightmappedReflective@@@8 1004c4d0     lightmappedreflective.obj
 0003:00001500       ??_R0?AVCShader@SDK_LightmappedReflective_DX90@@@8 1004c500     lightmappedreflective.obj
 0003:00001618       ??_R0?AVCShader@SDK_LightmappedTwoTexture@@@8 1004c618     lightmappedtwotexture.obj
 0003:000018b0       ??_R0?AVCShader@SDK_Refract@@@8 1004c8b0     refract.obj
 0003:000018d4       ??_R0?AVCShader@SDK_Refract_DX90@@@8 1004c8d4     refract.obj
 0003:00001be0       ??_R0?AVCShader@SDK_screenspace_general@@@8 1004cbe0     screenspace_general.obj
 0003:00001c10       ??_R0?AVCShader@SDK_screenspace_general_dx9@@@8 1004cc10     screenspace_general.obj
 0003:00001eac       ??_R0?AVCShader@SDK_Spritecard@@@8 1004ceac     spritecard.obj
 0003:00001ed4       ?s_TexCoordSize@?CB@??OnDrawElements@CShader@SDK_Spritecard@@UAEXPAPAVIMaterialVar@@PAVIShaderShadow@@PAVIShaderDynamicAPI@@W4VertexCompressionType_t@@PAPAVCBasePerMaterialContextData@@@Z@4PAHA 1004ced4     spritecard.obj
 0003:00001ef4       ?s_TexCoordSizeSpline@?CB@??OnDrawElements@CShader@SDK_Spritecard@@UAEXPAPAVIMaterialVar@@PAVIShaderShadow@@PAVIShaderDynamicAPI@@W4VertexCompressionType_t@@PAPAVCBasePerMaterialContextData@@@Z@4PAHA 1004cef4     spritecard.obj
 0003:00001fe4       ??_R0?AVCShader@SDK_Teeth@@@8 1004cfe4     teeth.obj
 0003:00002004       ??_R0?AVCShader@SDK_Teeth_DX9@@@8 1004d004     teeth.obj
 0003:000025a0       ??_R0?AVCShader@SDK_UnlitGeneric@@@8 1004d5a0     unlitgeneric_dx9.obj
 0003:00002698       ??_R0?AVCShader@SDK_UnlitTwoTexture@@@8 1004d698     unlittwotexture_dx9.obj
 0003:000026c4       ??_R0?AVCShader@SDK_UnlitTwoTexture_DX9@@@8 1004d6c4     unlittwotexture_dx9.obj
 0003:00002f54       ??_R0?AVCShader@SDK_VertexLitGeneric@@@8 1004df54     vertexlitgeneric_dx9.obj
 0003:00002f80       ??_R0?AVCVertexLitGeneric_DX9_Context@@@8 1004df80     vertexlitgeneric_dx9_helper.obj
 0003:000032ec       ??_R0?AVCShader@SDK_VortWarp@@@8 1004e2ec     vortwarp_dx9.obj
 0003:00003310       ??_R0?AVCShader@SDK_VortWarp_DX9@@@8 1004e310     vortwarp_dx9.obj
 0003:00003650       ??_R0?AVCShader@SDK_Water@@@8 1004e650     water.obj
 0003:00003670       ??_R0?AVCShader@SDK_Water_DX90@@@8 1004e670     water.obj
 0003:00003698       ??_R0?AVCShader@SDK_Water_DX9_HDR@SDK_Water_DX90@@@8 1004e698     water.obj
 0003:00003810       ??_R0?AVCShader@SDK_WorldTwoTextureBlend@@@8 1004e810     worldtwotextureblend.obj
 0003:00003860       ??_R0?AVCShader@SDK_WorldVertexAlpha@@@8 1004e860     worldvertexalpha.obj
 0003:00003cf4       ??_R0?AVCShader@SDK_WorldVertexTransition@@@8 1004ecf4     worldvertextransition.obj
 0003:00003d24       ??_R0?AVCShader@SDK_WorldVertexTransition_DX9@@@8 1004ed24     worldvertextransition.obj
 0003:00003d70       ??_R0?AVIShaderDLLVerification@@@8 1004ed70     shader_dll_verify.obj
 0003:00003d98       ??_R0?AVCShaderDLLVerification@@@8 1004ed98     shader_dll_verify.obj
 0003:00003e60       ??_R0?AVCShader@Void_CelShadeLightmapped@@@8 1004ee60     void_celshadelightmapped.obj
 0003:00003efc       ??_R0?AVCShader@void_postblur@@@8 1004eefc     void_postblur.obj
 0003:00003fbc       ??_R0?AVCShader@Void_PostComposite@@@8 1004efbc     void_postcomposite.obj
 0003:0000403c       ??_R0?AVCShader@void_postgodray@@@8 1004f03c     void_postgodray.obj
 0003:000040e8       ??_R0?AVCShader@void_postworldcomposite@@@8 1004f0e8     void_postworldcomposite.obj
 0003:00004130       ?pfSqrt@@3P6AMM@ZA         1004f130     mathlib:mathlib_base.obj
 0003:00004134       ?pfRSqrt@@3P6AMM@ZA        1004f134     mathlib:mathlib_base.obj
 0003:00004138       ?pfRSqrtFast@@3P6AMM@ZA    1004f138     mathlib:mathlib_base.obj
 0003:0000413c       ?pfVectorNormalize@@3P6IMAAVVector@@@ZA 1004f13c     mathlib:mathlib_base.obj
 0003:00004140       ?pfVectorNormalizeFast@@3P6IXAAVVector@@@ZA 1004f140     mathlib:mathlib_base.obj
 0003:00004144       ?pfInvRSquared@@3P6AMPBM@ZA 1004f144     mathlib:mathlib_base.obj
 0003:00004148       ?pfFastSinCos@@3P6AXMPAM0@ZA 1004f148     mathlib:mathlib_base.obj
 0003:0000414c       ?pfFastCos@@3P6AMM@ZA      1004f14c     mathlib:mathlib_base.obj
 0003:00004158       ?vec3_invalid@@3VVector@@B 1004f158     mathlib:mathlib_base.obj
 0003:00004180       ?power2_n@@3PAMA           1004f180     mathlib:color_conversion.obj
 0003:000046f8       ??_R0?AVIShaderDLLInternal@@@8 1004f6f8     shaderlib:ShaderDLL.obj
 0003:0000471c       ??_R0?AVIShaderDLL@@@8     1004f71c     shaderlib:ShaderDLL.obj
 0003:00004738       ??_R0?AVCShaderDLL@@@8     1004f738     shaderlib:ShaderDLL.obj
 0003:0000476c       ??_R0?AVIConCommandBaseAccessor@@@8 1004f76c     shaderlib:shaderlib_cvar.obj
 0003:00004794       ??_R0?AVCShaderLibConVarAccessor@@@8 1004f794     shaderlib:shaderlib_cvar.obj
 0003:000047c4       ?g_ConVarAccessor@@3VCShaderLibConVarAccessor@@A 1004f7c4     shaderlib:shaderlib_cvar.obj
 0003:00004820       ??_R0?AVConCommandBase@@@8 1004f820     tier1:convar.obj
 0003:00004844       ??_R0?AVIConVar@@@8        1004f844     tier1:convar.obj
 0003:0000485c       ??_R0?AVConVar@@@8         1004f85c     tier1:convar.obj
 0003:00004878       ??_R0?AVCDefaultAccessor@@@8 1004f878     tier1:convar.obj
 0003:00004898       ??_R0?AVCEmptyConVar@@@8   1004f898     tier1:convar.obj
 0003:00004938       ??_R0?AVCUtlCharConversion@@@8 1004f938     tier1:utlbuffer.obj
 0003:0000495c       ??_R0?AVCUtlNoEscConversion@@@8 1004f95c     tier1:utlbuffer.obj
 0003:00004980       ??_R0?AVCUtlCStringConversion@@@8 1004f980     tier1:utlbuffer.obj
 0003:000049a4       __fltused                  1004f9a4     LIBCMT:_fpinit_.obj
 0003:000049a8       __ldused                   1004f9a8     LIBCMT:_fpinit_.obj
 0003:000049b4       ??_R0?AVtype_info@@@8      1004f9b4     LIBCMT:typinfo.obj
 0003:000049d0       __OP_FMODjmptab            1004f9d0     LIBCMT:_87fmod_.obj
 0003:00004a24       ??_R0?AVbad_alloc@std@@@8  1004fa24     LIBCMT:new.obj
 0003:00004a40       ??_R0?AVexception@std@@@8  1004fa40     LIBCMT:new.obj
 0003:00004a80       __half                     1004fa80     LIBCMT:_pow_.obj
 0003:00004aa0       __cfltcvt_tab              1004faa0     LIBCMT:cmiscdat.obj
 0003:00004ad0       ___abort_behavior          1004fad0     LIBCMT:abort.obj
 0003:00004b90       ___flsindex                1004fb90     LIBCMT:tidtable.obj
 0003:00004b94       ___getvalueindex           1004fb94     LIBCMT:tidtable.obj
 0003:00004b98       __aexit_rtn                1004fb98     LIBCMT:crt0dat.obj
 0003:00004ba0       __indefinite               1004fba0     LIBCMT:_87disp_.obj
 0003:00004baa       __piby2                    1004fbaa     LIBCMT:_87disp_.obj
 0003:00004d38       ___badioinfo               1004fd38     LIBCMT:ioinit.obj
 0003:00004d78       __amblksiz                 1004fd78     LIBCMT:heapinit.obj
 0003:00004d7c       __First_FPE_Indx           1004fd7c     LIBCMT:winxfltr.obj
 0003:00004d80       __Num_FPE                  1004fd80     LIBCMT:winxfltr.obj
 0003:00004d84       __XcptActTabSize           1004fd84     LIBCMT:winxfltr.obj
 0003:00004d88       __XcptActTabCount          1004fd88     LIBCMT:winxfltr.obj
 0003:00004d90       __infinity                 1004fd90     LIBCMT:_87tran_.obj
 0003:00004d9a       __minfinity                1004fd9a     LIBCMT:_87tran_.obj
 0003:00004da4       __logemax                  1004fda4     LIBCMT:_87tran_.obj
 0003:00004dca       __OP_EXPjmptab             1004fdca     LIBCMT:_87tran_.obj
 0003:00004df0       ___initialmbcinfo          1004fdf0     LIBCMT:mbctype.obj
 0003:00005010       __mbctype                  10050010     LIBCMT:mbctype.obj
 0003:00005118       __mbcasemap                10050118     LIBCMT:mbctype.obj
 0003:00005218       ___ptmbcinfo               10050218     LIBCMT:mbctype.obj
 0003:00005314       ___globallocalestatus      10050314     LIBCMT:glstatus.obj
 0003:00005318       ___clocalestr              10050318     LIBCMT:nlsdata2.obj
 0003:00005320       ___initiallocinfo          10050320     LIBCMT:nlsdata2.obj
 0003:000053f8       ___ptlocinfo               100503f8     LIBCMT:nlsdata2.obj
 0003:000053fc       ___lc_clike                100503fc     LIBCMT:nlsdata2.obj
 0003:00005400       ___initiallocalestructinfo 10050400     LIBCMT:nlsdata2.obj
 0003:000056a0       ___security_cookie         100506a0     LIBCMT:gs_cookie.obj
 0003:000056a4       ___security_cookie_complement 100506a4     LIBCMT:gs_cookie.obj
 0003:000056a8       ___nullstring              100506a8     LIBCMT:output.obj
 0003:000056ac       ___wnullstring             100506ac     LIBCMT:output.obj
 0003:000056b0       __HUGE                     100506b0     LIBCMT:_huge_.obj
 0003:000056c0       __d_inf                    100506c0     LIBCMT:_util_.obj
 0003:000056c8       __d_ind                    100506c8     LIBCMT:_util_.obj
 0003:000056d0       __d_max                    100506d0     LIBCMT:_util_.obj
 0003:000056d8       __d_min                    100506d8     LIBCMT:_util_.obj
 0003:000056e0       __d_mzero                  100506e0     LIBCMT:_util_.obj
 0003:000056e8       __matherr_flag             100506e8     LIBCMT:_matherr_.obj
 0003:00005800       __pctype                   10050800     LIBCMT:ctype.obj
 0003:00005804       __pwctype                  10050804     LIBCMT:ctype.obj
 0003:00005808       ___lc_time_c               10050808     LIBCMT:strftime.obj
 0003:000058c0       ___lc_time_curr            100508c0     LIBCMT:strftime.obj
 0003:000058c4       ___lconv_static_decimal    100508c4     LIBCMT:lconv.obj
 0003:000058c8       ___lconv_c                 100508c8     LIBCMT:lconv.obj
 0003:000058f8       ___lconv                   100508f8     LIBCMT:lconv.obj
 0003:000058fc       ___mb_cur_max              100508fc     LIBCMT:nlsdata1.obj
 0003:00005900       ___decimal_point           10050900     LIBCMT:nlsdata1.obj
 0003:00005904       ___decimal_point_length    10050904     LIBCMT:nlsdata1.obj
 0003:00005940       __pow10pos                 10050940     LIBCMT:_constpow_.obj
 0003:00005aa0       __pow10neg                 10050aa0     LIBCMT:_constpow_.obj
 0003:00005c00       __iob                      10050c00     LIBCMT:_file.obj
 0003:00005e80       __NLG_Destination          10050e80     LIBCMT:exsup.obj
 0003:00005e90       __timezone                 10050e90     LIBCMT:timeset.obj
 0003:00005e94       __daylight                 10050e94     LIBCMT:timeset.obj
 0003:00005e98       __dstbias                  10050e98     LIBCMT:timeset.obj
 0003:00005f20       __tzname                   10050f20     LIBCMT:timeset.obj
 0003:00005f44       __lpdays                   10050f44     LIBCMT:days.obj
 0003:00005f78       __days                     10050f78     LIBCMT:days.obj
 0003:00005fb0       __coninpfh                 10050fb0     LIBCMT:initcon.obj
 0003:00005fb4       __confh                    10050fb4     LIBCMT:initcon.obj
 0003:00006858       ?r_flashlight_version2@@3VConVar@@A 10051858     eyes_dx8_dx9_helper.obj
 0003:00006a68       ?mat_disable_lightwarp@@3VConVar@@A 10051a68     lightmappedgeneric_dx9_helper.obj
 0003:00006ab0       ?mat_fullbright@@3VConVar@@A 10051ab0     lightmappedgeneric_dx9_helper.obj
 0003:00006af8       ?mat_disable_fancy_blending@@3VConVar@@A 10051af8     lightmappedgeneric_dx9_helper.obj
 0003:000071b0       ?g_nSnapShots@@3HA         100521b0     vertexlitgeneric_dx9_helper.obj
 0003:00007650       ?s_renderNormals@@3VConVar@@A 10052650     void_celshadelightmapped.obj
 0003:00007858       ?SinCosTable@@3PAMA        10052858     mathlib:mathlib_base.obj
 0003:00007c58       ?s_bMathlibInitialized@@3_NA 10052c58     mathlib:mathlib_base.obj
 0003:00007c68       ?vec3_origin@@3VVector@@B  10052c68     mathlib:mathlib_base.obj
 0003:00007c74       ?vec3_angle@@3VQAngle@@B   10052c74     mathlib:mathlib_base.obj
 0003:00008080       ?lineartolightmap@@3PAEA   10053080     mathlib:color_conversion.obj
 0003:0000b880       ?lineartovertex@@3PAMA     10056880     mathlib:color_conversion.obj
 0003:0000f998       ?s_pShaderShadow@CBaseShader@@1PAVIShaderShadow@@A 1005a998     shaderlib:BaseShader.obj
 0003:0000f99c       ?s_pMeshBuilder@CBaseShader@@0PAVCMeshBuilder@@A 1005a99c     shaderlib:BaseShader.obj
 0003:0000f9a0       ?s_pShaderAPI@CBaseShader@@1PAVIShaderDynamicAPI@@A 1005a9a0     shaderlib:BaseShader.obj
 0003:0000f9a4       ?s_nModulationFlags@CBaseShader@@0HA 1005a9a4     shaderlib:BaseShader.obj
 0003:0000f9a8       ?s_pShaderInit@CBaseShader@@1PAVIShaderInit@@A 1005a9a8     shaderlib:BaseShader.obj
 0003:0000f9ac       ?s_ppParams@CBaseShader@@2PAPAVIMaterialVar@@A 1005a9ac     shaderlib:BaseShader.obj
 0003:0000f9b0       ?s_pTextureGroupName@CBaseShader@@1PBDB 1005a9b0     shaderlib:BaseShader.obj
 0003:0000fa18       ?g_pHardwareConfig@@3PAVIMaterialSystemHardwareConfig@@A 1005aa18     shaderlib:ShaderDLL.obj
 0003:0000fa1c       ?g_pConfig@@3PBUMaterialSystem_Config_t@@B 1005aa1c     shaderlib:ShaderDLL.obj
 0003:0000fa20       ?g_pSLShaderSystem@@3PAVIShaderSystem@@A 1005aa20     shaderlib:ShaderDLL.obj
 0003:0000fb58       ?s_pConCommandBases@ConCommandBase@@1PAV1@A 1005ab58     tier1:convar.obj
 0003:0000fb5c       ?s_pAccessor@ConCommandBase@@1PAVIConCommandBaseAccessor@@A 1005ab5c     tier1:convar.obj
 0003:0000fb78       _cvar                      1005ab78     tier1:tier1.obj
 0003:0000fb7c       _g_pCVar                   1005ab7c     tier1:tier1.obj
 0003:0000fb80       ?g_pProcessUtils@@3PAVIProcessUtils@@A 1005ab80     tier1:tier1.obj
 0003:0000fb90       ?s_pInterfaceRegs@InterfaceReg@@2PAV1@A 1005ab90     tier1:interface.obj
 0003:0000fba0       ?s_StringCharConversion@@3VCUtlCStringConversion@@A 1005aba0     tier1:utlbuffer.obj
 0003:000105b0       ?s_NoEscConversion@@3VCUtlNoEscConversion@@A 1005b5b0     tier1:utlbuffer.obj
 0003:00010ec0       ___fastflag                1005bec0     LIBCMT:_fpinit_.obj
 0003:00010ec4       __adjust_fdiv              1005bec4     LIBCMT:_fpinit_.obj
 0003:00010edc       __aenvptr                  1005bedc     LIBCMT:dllcrt0.obj
 0003:00010ee0       __wenvptr                  1005bee0     LIBCMT:dllcrt0.obj
 0003:00010ee4       ___error_mode              1005bee4     LIBCMT:dllcrt0.obj
 0003:00010ee8       ___app_type                1005bee8     LIBCMT:dllcrt0.obj
 0003:0001120c       _gpFlsAlloc                1005c20c     LIBCMT:tidtable.obj
 0003:00011210       _gpFlsGetValue             1005c210     LIBCMT:tidtable.obj
 0003:00011214       _gpFlsSetValue             1005c214     LIBCMT:tidtable.obj
 0003:00011218       _gpFlsFree                 1005c218     LIBCMT:tidtable.obj
 0003:00011224       ___pPurecall               1005c224     LIBCMT:inithelp.obj
 0003:00011228       __maxwait                  1005c228     LIBCMT:crtheap.obj
 0003:0001122c       __umaskval                 1005c22c     LIBCMT:crt0dat.obj
 0003:00011230       ___argc                    1005c230     LIBCMT:crt0dat.obj
 0003:00011234       ___argv                    1005c234     LIBCMT:crt0dat.obj
 0003:00011238       ___wargv                   1005c238     LIBCMT:crt0dat.obj
 0003:0001123c       __environ                  1005c23c     LIBCMT:crt0dat.obj
 0003:00011240       ___initenv                 1005c240     LIBCMT:crt0dat.obj
 0003:00011244       __wenviron                 1005c244     LIBCMT:crt0dat.obj
 0003:00011248       ___winitenv                1005c248     LIBCMT:crt0dat.obj
 0003:0001124c       __pgmptr                   1005c24c     LIBCMT:crt0dat.obj
 0003:00011250       __wpgmptr                  1005c250     LIBCMT:crt0dat.obj
 0003:00011254       __exitflag                 1005c254     LIBCMT:crt0dat.obj
 0003:00011258       __C_Termination_Done       1005c258     LIBCMT:crt0dat.obj
 0003:0001125c       __C_Exit_Done              1005c25c     LIBCMT:crt0dat.obj
 0003:00011260       ?_pnhHeap@@3P6AHI@ZA       1005c260     LIBCMT:handler.obj
 0003:00011374       __crtheap                  1005c374     LIBCMT:heapinit.obj
 0003:00011380       ___mbulinfo                1005c380     LIBCMT:mbctype.obj
 0003:0001138c       ___mbcodepage              1005c38c     LIBCMT:mbctype.obj
 0003:00011390       ___ismbcodepage            1005c390     LIBCMT:mbctype.obj
 0003:00011394       ___mblcid                  1005c394     LIBCMT:mbctype.obj
 0003:00011398       ___locale_changed          1005c398     LIBCMT:setlocal.obj
 0003:0001139c       ___lc_handle               1005c39c     LIBCMT:nlsdata2.obj
 0003:000113b4       ___lc_codepage             1005c3b4     LIBCMT:nlsdata2.obj
 0003:000113b8       ___lc_collate_cp           1005c3b8     LIBCMT:nlsdata2.obj
 0003:000113bc       ___pInvalidArgHandler      1005c3bc     LIBCMT:invarg.obj
 0003:00011518       __outputformat             1005c518     LIBCMT:outputformat.obj
 0003:00011530       ?pArgList@UnDecorator@@0PAVReplicator@@A 1005c530     LIBCMT:undname.obj
 0003:00011534       ?pZNameList@UnDecorator@@0PAVReplicator@@A 1005c534     LIBCMT:undname.obj
 0003:00011538       ?pTemplateArgList@UnDecorator@@0PAVReplicator@@A 1005c538     LIBCMT:undname.obj
 0003:0001153c       ?gName@UnDecorator@@0PBDB  1005c53c     LIBCMT:undname.obj
 0003:00011540       ?name@UnDecorator@@0PBDB   1005c540     LIBCMT:undname.obj
 0003:00011544       ?outputString@UnDecorator@@0PADA 1005c544     LIBCMT:undname.obj
 0003:00011548       ?maxStringLength@UnDecorator@@0HA 1005c548     LIBCMT:undname.obj
 0003:0001154c       ?disableFlags@UnDecorator@@0KA 1005c54c     LIBCMT:undname.obj
 0003:00011550       ?m_pGetParameter@UnDecorator@@0P6APADJ@ZA 1005c550     LIBCMT:undname.obj
 0003:00011554       ?fExplicitTemplateParams@UnDecorator@@0_NA 1005c554     LIBCMT:undname.obj
 0003:00011555       ?fGetTemplateArgumentList@UnDecorator@@0_NA 1005c555     LIBCMT:undname.obj
 0003:00011580       ___sbh_pHeaderDefer        1005c580     LIBCMT:sbheap.obj
 0003:00011584       ?__pInconsistency@@3P6AXXZA 1005c584     LIBCMT:hooks.obj
 0003:00011590       __newmode                  1005c590     LIBCMT:_newmode.obj
 0003:00011598       ___lconv_static_null       1005c598     LIBCMT:lconv.obj
 0003:000118c4       __cflush                   1005c8c4     LIBCMT:_file.obj
 0003:00011988       __stdbuf                   1005c988     LIBCMT:_sftbuf.obj
 0003:00011990       ___piob                    1005c990     <common>
 0003:000119a0       __bufin                    1005c9a0     <common>
 0003:000129a0       __nstream                  1005d9a0     <common>
 0003:000129a4       __debugger_hook_dummy      1005d9a4     <common>
 0003:000129a8       ___sbh_cntHeaderList       1005d9a8     <common>
 0003:000129ac       ___sbh_pHeaderList         1005d9ac     <common>
 0003:000129b0       ___sbh_threshold           1005d9b0     <common>
 0003:000129b4       ___sbh_pHeaderScan         1005d9b4     <common>
 0003:000129b8       ___sbh_sizeHeaderList      1005d9b8     <common>
 0003:000129bc       ___sbh_indGroupDefer       1005d9bc     <common>
 0003:000129c0       __pmatherr                 1005d9c0     <common>
 0003:000129c4       ___use_sse2_mathfcns       1005d9c4     <common>
 0003:000129c8       ___active_heap             1005d9c8     <common>
 0003:000129cc       __nhandle                  1005d9cc     <common>
 0003:000129e0       ___pioinfo                 1005d9e0     <common>
 0003:00012ae0       __pDestructExceptionObject 1005dae0     <common>
 0003:00012ae4       ___env_initialized         1005dae4     <common>
 0003:00012ae8       ___onexitend               1005dae8     <common>
 0003:00012aec       ___onexitbegin             1005daec     <common>
 0003:00012af0       ___mbctype_initialized     1005daf0     <common>
 0003:00012af4       ___dyn_tls_init_callback   1005daf4     <common>
 0003:00012af8       ___sse2_available          1005daf8     <common>
 0003:00012afc       __acmdln                   1005dafc     <common>

 entry point at        0001:00020967

 Static symbols

 0001:00006e10       ?SetDepthFlashlightParams@@YAXPAVCBaseVSShader@@PAVIShaderDynamicAPI@@ABVVMatrix@@ABUFlashlightState_t@@@Z 10007e10 f   eyes_dx8_dx9_helper.obj
 0001:00006f40       ?DrawFlashlight@@YAX_NPAVCBaseVSShader@@PAPAVIMaterialVar@@PAVIShaderDynamicAPI@@PAVIShaderShadow@@AAUEyes_DX8_DX9_Vars_t@@W4VertexCompressionType_t@@@Z 10007f40 f   eyes_dx8_dx9_helper.obj
 0001:000074e0       ?DrawUsingVertexShader@@YAX_NPAVCBaseVSShader@@PAPAVIMaterialVar@@PAVIShaderDynamicAPI@@PAVIShaderShadow@@AAUEyes_DX8_DX9_Vars_t@@W4VertexCompressionType_t@@@Z 100084e0 f   eyes_dx8_dx9_helper.obj
 0001:00013100       ?DrawVertexLitGeneric_DX9_Internal@@YAXPAVCBaseVSShader@@PAPAVIMaterialVar@@PAVIShaderDynamicAPI@@PAVIShaderShadow@@_N4AAUVertexLitGeneric_DX9_Vars_t@@W4VertexCompressionType_t@@PAPAVCBasePerMaterialContextData@@@Z 10014100 f   vertexlitgeneric_dx9_helper.obj
 0001:0001a310       ?MD5Transform@@YAXQAIQBI@Z 1001b310 f   checksum_md5.obj
 0001:0002006a       __onexit_nolock            1002106a f   LIBCMT:onexit.obj
 0001:00020871       ___DllMainCRTStartup       10021871 f   LIBCMT:dllcrt0.obj
 0001:00021909       ?strtoxl@@YAKPAUlocaleinfo_struct@@PBDPAPBDHH@Z 10022909 f   LIBCMT:strtol.obj
 0001:00021cd0       __shift                    10022cd0 f   LIBCMT:cvt.obj
 0001:00021d15       __cftoe2_l                 10022d15 f   LIBCMT:cvt.obj
 0001:000222e7       __cftof2_l                 100232e7 f   LIBCMT:cvt.obj
 0001:000226f1       _fastcopy_I                100236f1 f   LIBCMT:p4_memcpy.obj
 0001:0002285b       _has_osfxsr_set            1002385b f   LIBCMT:cpu_disp.obj
 0001:0002334e       _fastzero_I                1002434e f   LIBCMT:p4_memset.obj
 0001:00023664       __initterm                 10024664 f   LIBCMT:crt0dat.obj
 0001:0002372a       _doexit                    1002472a f   LIBCMT:crt0dat.obj
 0001:00025303       _parse_cmdline             10026303 f   LIBCMT:stdargv.obj
 0001:00027912       ?CPtoLCID@@YAHH@Z          10028912 f   LIBCMT:mbctype.obj
 0001:00027941       ?setSBCS@@YAXPAUthreadmbcinfostruct@@@Z 10028941 f   LIBCMT:mbctype.obj
 0001:000279a5       ?setSBUpLow@@YAXPAUthreadmbcinfostruct@@@Z 100289a5 f   LIBCMT:mbctype.obj
 0001:00027bdc       ?getSystemCP@@YAHH@Z       10028bdc f   LIBCMT:mbctype.obj
 0001:00028266       __updatetlocinfoEx_nolock  10029266 f   LIBCMT:setlocal.obj
 0001:00028e13       ?__crtLCMapStringA_stat@@YAHPAUlocaleinfo_struct@@KKPBDHPADHHH@Z 10029e13 f   LIBCMT:a_map.obj
 0001:0002956a       _write_char                1002a56a f   LIBCMT:output.obj
 0001:0002959d       _write_multi_char          1002a59d f   LIBCMT:output.obj
 0001:000295c3       _write_string              1002a5c3 f   LIBCMT:output.obj
 0001:0002a7b4       __unwind_handler4          1002b7b4 f   LIBCMT:exsup4.obj
 0001:0002a895       _siglookup                 1002b895 f   LIBCMT:winsig.obj
 0001:0002bec4       ?x_ismbbtype_l@@YAHPAUlocaleinfo_struct@@IHH@Z 1002cec4 f   LIBCMT:ismbbyte.obj
 0001:0002ca15       ?__crtGetStringTypeA_stat@@YAHPAUlocaleinfo_struct@@KPBDHPAGHHH@Z 1002da15 f   LIBCMT:a_str.obj
 0001:0002f6a6       __hw_cw                    100306a6 f   LIBCMT:_ieee87_.obj
 0001:0002f734       ___hw_cw_sse2              10030734 f   LIBCMT:_ieee87_.obj
 0001:0002fb04       __unwind_handler           10030b04 f   LIBCMT:exsup.obj
 0001:00030153       _flsall                    10031153 f   LIBCMT:fflush.obj
 0001:00030670       ??__Es_ShaderParams@SDK_Aftershock@@YAXXZ 10031670 f   aftershock.obj
 0001:00030680       ??__Es_ShaderInstance@SDK_Aftershock@@YAXXZ 10031680 f   aftershock.obj
 0001:000306a0       ??__Es_ShaderParams@SDK_Aftershock_dx9@@YAXXZ 100316a0 f   aftershock.obj
 0001:000306b0       ??__ECOLORTINT@SDK_Aftershock_dx9@@YAXXZ 100316b0 f   aftershock.obj
 0001:000306e0       ??__EREFRACTAMOUNT@SDK_Aftershock_dx9@@YAXXZ 100316e0 f   aftershock.obj
 0001:00030710       ??__ENORMALMAP@SDK_Aftershock_dx9@@YAXXZ 10031710 f   aftershock.obj
 0001:00030740       ??__EBUMPFRAME@SDK_Aftershock_dx9@@YAXXZ 10031740 f   aftershock.obj
 0001:00030770       ??__EBUMPTRANSFORM@SDK_Aftershock_dx9@@YAXXZ 10031770 f   aftershock.obj
 0001:000307a0       ??__ESILHOUETTETHICKNESS@SDK_Aftershock_dx9@@YAXXZ 100317a0 f   aftershock.obj
 0001:000307d0       ??__ESILHOUETTECOLOR@SDK_Aftershock_dx9@@YAXXZ 100317d0 f   aftershock.obj
 0001:00030800       ??__EGROUNDMIN@SDK_Aftershock_dx9@@YAXXZ 10031800 f   aftershock.obj
 0001:00030830       ??__EGROUNDMAX@SDK_Aftershock_dx9@@YAXXZ 10031830 f   aftershock.obj
 0001:00030860       ??__EBLURAMOUNT@SDK_Aftershock_dx9@@YAXXZ 10031860 f   aftershock.obj
 0001:00030890       ??__ETIME@SDK_Aftershock_dx9@@YAXXZ 10031890 f   aftershock.obj
 0001:000308c0       ??__Es_ShaderInstance@SDK_Aftershock_dx9@@YAXXZ 100318c0 f   aftershock.obj
 0001:000308e0       ??__Emat_fullbright@@YAXXZ 100318e0 f   BaseVSShader.obj
 0001:00030910       ??__Es_ShaderParams@SDK_Bloom@@YAXXZ 10031910 f   Bloom.obj
 0001:00030920       ??__EFBTEXTURE@SDK_Bloom@@YAXXZ 10031920 f   Bloom.obj
 0001:00030950       ??__EBLURTEXTURE@SDK_Bloom@@YAXXZ 10031950 f   Bloom.obj
 0001:00030980       ??__Es_ShaderInstance@SDK_Bloom@@YAXXZ 10031980 f   Bloom.obj
 0001:000309a0       ??__Es_ShaderParams@SDK_Cable@@YAXXZ 100319a0 f   cable_dx9.obj
 0001:000309b0       ??__Es_ShaderInstance@SDK_Cable@@YAXXZ 100319b0 f   cable_dx9.obj
 0001:000309d0       ??__Es_ShaderParams@SDK_Cable_DX9@@YAXXZ 100319d0 f   cable_dx9.obj
 0001:000309e0       ??__EBUMPMAP@SDK_Cable_DX9@@YAXXZ 100319e0 f   cable_dx9.obj
 0001:00030a10       ??__EMINLIGHT@SDK_Cable_DX9@@YAXXZ 10031a10 f   cable_dx9.obj
 0001:00030a40       ??__EMAXLIGHT@SDK_Cable_DX9@@YAXXZ 10031a40 f   cable_dx9.obj
 0001:00030a70       ??__Es_ShaderInstance@SDK_Cable_DX9@@YAXXZ 10031a70 f   cable_dx9.obj
 0001:00030a90       ??__Er_lightwarpidentity@@YAXXZ 10031a90 f   cloak_dx9_helper.obj
 0001:00030ac0       ??__Es_ShaderParams@SDK_Core@@YAXXZ 10031ac0 f   core_dx9.obj
 0001:00030ad0       ??__Es_ShaderInstance@SDK_Core@@YAXXZ 10031ad0 f   core_dx9.obj
 0001:00030af0       ??__Es_ShaderParams@SDK_Core_DX90@@YAXXZ 10031af0 f   core_dx9.obj
 0001:00030b00       ??__ECOLOR@SDK_Core_DX90@@YAXXZ 10031b00 f   core_dx9.obj
 0001:00030b10       ??__EALPHA@SDK_Core_DX90@@YAXXZ 10031b10 f   core_dx9.obj
 0001:00030b20       ??__EREFRACTAMOUNT@SDK_Core_DX90@@YAXXZ 10031b20 f   core_dx9.obj
 0001:00030b50       ??__EREFRACTTINT@SDK_Core_DX90@@YAXXZ 10031b50 f   core_dx9.obj
 0001:00030b80       ??__ENORMALMAP@SDK_Core_DX90@@YAXXZ 10031b80 f   core_dx9.obj
 0001:00030bb0       ??__EBUMPFRAME@SDK_Core_DX90@@YAXXZ 10031bb0 f   core_dx9.obj
 0001:00030be0       ??__EBUMPTRANSFORM@SDK_Core_DX90@@YAXXZ 10031be0 f   core_dx9.obj
 0001:00030c10       ??__ETIME@SDK_Core_DX90@@YAXXZ 10031c10 f   core_dx9.obj
 0001:00030c40       ??__EENVMAP@SDK_Core_DX90@@YAXXZ 10031c40 f   core_dx9.obj
 0001:00030c70       ??__EENVMAPFRAME@SDK_Core_DX90@@YAXXZ 10031c70 f   core_dx9.obj
 0001:00030ca0       ??__EENVMAPTINT@SDK_Core_DX90@@YAXXZ 10031ca0 f   core_dx9.obj
 0001:00030cd0       ??__EENVMAPCONTRAST@SDK_Core_DX90@@YAXXZ 10031cd0 f   core_dx9.obj
 0001:00030d00       ??__EENVMAPSATURATION@SDK_Core_DX90@@YAXXZ 10031d00 f   core_dx9.obj
 0001:00030d30       ??__EFLOWMAP@SDK_Core_DX90@@YAXXZ 10031d30 f   core_dx9.obj
 0001:00030d60       ??__EFLOWMAPFRAME@SDK_Core_DX90@@YAXXZ 10031d60 f   core_dx9.obj
 0001:00030d90       ??__EFLOWMAPSCROLLRATE@SDK_Core_DX90@@YAXXZ 10031d90 f   core_dx9.obj
 0001:00030dc0       ??__ECORECOLORTEXTURE@SDK_Core_DX90@@YAXXZ 10031dc0 f   core_dx9.obj
 0001:00030df0       ??__ECORECOLORTEXTUREFRAME@SDK_Core_DX90@@YAXXZ 10031df0 f   core_dx9.obj
 0001:00030e20       ??__EFLOWMAPTEXCOORDOFFSET@SDK_Core_DX90@@YAXXZ 10031e20 f   core_dx9.obj
 0001:00030e50       ??__Es_ShaderInstance@SDK_Core_DX90@@YAXXZ 10031e50 f   core_dx9.obj
 0001:00030e70       ??__Es_ShaderParams@SDK_DepthWrite@@YAXXZ 10031e70 f   dx8fallbacks.obj
 0001:00030e80       ??__Es_ShaderInstance@SDK_DepthWrite@@YAXXZ 10031e80 f   dx8fallbacks.obj
 0001:00030ea0       ??__Es_ShaderParams@SDK_EyeRefract@@YAXXZ 10031ea0 f   dx8fallbacks.obj
 0001:00030eb0       ??__Es_ShaderInstance@SDK_EyeRefract@@YAXXZ 10031eb0 f   dx8fallbacks.obj
 0001:00030ed0       ??__Es_ShaderParams@SDK_VolumeClouds@@YAXXZ 10031ed0 f   dx8fallbacks.obj
 0001:00030ee0       ??__Es_ShaderInstance@SDK_VolumeClouds@@YAXXZ 10031ee0 f   dx8fallbacks.obj
 0001:00030f00       ??__Es_ShaderParams@SDK_EyeGlint@@YAXXZ 10031f00 f   dx8fallbacks.obj
 0001:00030f10       ??__Es_ShaderInstance@SDK_EyeGlint@@YAXXZ 10031f10 f   dx8fallbacks.obj
 0001:00030f30       ??__Es_ShaderParams@SDK_AfterShock@@YAXXZ 10031f30 f   dx8fallbacks.obj
 0001:00030f40       ??__Es_ShaderInstance@SDK_AfterShock@@YAXXZ 10031f40 f   dx8fallbacks.obj
 0001:00030f60       ??__Es_ShaderParams@SDK_EyeRefract@@YAXXZ 10031f60 f   eye_refract.obj
 0001:00030f70       ??__Es_ShaderInstance@SDK_EyeRefract@@YAXXZ 10031f70 f   eye_refract.obj
 0001:00030f90       ??__Es_ShaderParams@SDK_EyeRefract_dx9@@YAXXZ 10031f90 f   eye_refract.obj
 0001:00030fa0       ??__EIRIS@SDK_EyeRefract_dx9@@YAXXZ 10031fa0 f   eye_refract.obj
 0001:00030fd0       ??__EIRISFRAME@SDK_EyeRefract_dx9@@YAXXZ 10031fd0 f   eye_refract.obj
 0001:00031000       ??__ECORNEATEXTURE@SDK_EyeRefract_dx9@@YAXXZ 10032000 f   eye_refract.obj
 0001:00031030       ??__EAMBIENTOCCLTEXTURE@SDK_EyeRefract_dx9@@YAXXZ 10032030 f   eye_refract.obj
 0001:00031060       ??__EENVMAP@SDK_EyeRefract_dx9@@YAXXZ 10032060 f   eye_refract.obj
 0001:00031090       ??__EEYEORIGIN@SDK_EyeRefract_dx9@@YAXXZ 10032090 f   eye_refract.obj
 0001:000310c0       ??__EIRISU@SDK_EyeRefract_dx9@@YAXXZ 100320c0 f   eye_refract.obj
 0001:000310f0       ??__EIRISV@SDK_EyeRefract_dx9@@YAXXZ 100320f0 f   eye_refract.obj
 0001:00031120       ??__EDILATION@SDK_EyeRefract_dx9@@YAXXZ 10032120 f   eye_refract.obj
 0001:00031150       ??__EGLOSSINESS@SDK_EyeRefract_dx9@@YAXXZ 10032150 f   eye_refract.obj
 0001:00031180       ??__ESPHERETEXKILLCOMBO@SDK_EyeRefract_dx9@@YAXXZ 10032180 f   eye_refract.obj
 0001:000311b0       ??__ERAYTRACESPHERE@SDK_EyeRefract_dx9@@YAXXZ 100321b0 f   eye_refract.obj
 0001:000311e0       ??__EPARALLAXSTRENGTH@SDK_EyeRefract_dx9@@YAXXZ 100321e0 f   eye_refract.obj
 0001:00031210       ??__ECORNEABUMPSTRENGTH@SDK_EyeRefract_dx9@@YAXXZ 10032210 f   eye_refract.obj
 0001:00031240       ??__EAMBIENTOCCLCOLOR@SDK_EyeRefract_dx9@@YAXXZ 10032240 f   eye_refract.obj
 0001:00031270       ??__EEYEBALLRADIUS@SDK_EyeRefract_dx9@@YAXXZ 10032270 f   eye_refract.obj
 0001:000312a0       ??__EINTRO@SDK_EyeRefract_dx9@@YAXXZ 100322a0 f   eye_refract.obj
 0001:000312d0       ??__EENTITYORIGIN@SDK_EyeRefract_dx9@@YAXXZ 100322d0 f   eye_refract.obj
 0001:00031300       ??__EWARPPARAM@SDK_EyeRefract_dx9@@YAXXZ 10032300 f   eye_refract.obj
 0001:00031330       ??__ELIGHTWARPTEXTURE@SDK_EyeRefract_dx9@@YAXXZ 10032330 f   eye_refract.obj
 0001:00031360       ??__ECLOAKPASSENABLED@SDK_EyeRefract_dx9@@YAXXZ 10032360 f   eye_refract.obj
 0001:00031390       ??__ECLOAKFACTOR@SDK_EyeRefract_dx9@@YAXXZ 10032390 f   eye_refract.obj
 0001:000313c0       ??__ECLOAKCOLORTINT@SDK_EyeRefract_dx9@@YAXXZ 100323c0 f   eye_refract.obj
 0001:000313f0       ??__EREFRACTAMOUNT@SDK_EyeRefract_dx9@@YAXXZ 100323f0 f   eye_refract.obj
 0001:00031420       ??__EEMISSIVEBLENDENABLED@SDK_EyeRefract_dx9@@YAXXZ 10032420 f   eye_refract.obj
 0001:00031450       ??__EEMISSIVEBLENDSCROLLVECTOR@SDK_EyeRefract_dx9@@YAXXZ 10032450 f   eye_refract.obj
 0001:00031480       ??__EEMISSIVEBLENDSTRENGTH@SDK_EyeRefract_dx9@@YAXXZ 10032480 f   eye_refract.obj
 0001:000314b0       ??__EEMISSIVEBLENDTEXTURE@SDK_EyeRefract_dx9@@YAXXZ 100324b0 f   eye_refract.obj
 0001:000314e0       ??__EEMISSIVEBLENDTINT@SDK_EyeRefract_dx9@@YAXXZ 100324e0 f   eye_refract.obj
 0001:00031510       ??__EEMISSIVEBLENDFLOWTEXTURE@SDK_EyeRefract_dx9@@YAXXZ 10032510 f   eye_refract.obj
 0001:00031540       ??__Es_ShaderInstance@SDK_EyeRefract_dx9@@YAXXZ 10032540 f   eye_refract.obj
 0001:00031560       ??__Er_lightwarpidentity@@YAXXZ 10032560 f   eye_refract_helper.obj
 0001:00031590       ??__Es_ShaderParams@SDK_Eyeball@@YAXXZ 10032590 f   eyeball.obj
 0001:000315a0       ??__EBASETEXTURE@SDK_Eyeball@@YAXXZ 100325a0 f   eyeball.obj
 0001:000315b0       ??__EBASETEXTURETRANSFORM@SDK_Eyeball@@YAXXZ 100325b0 f   eyeball.obj
 0001:000315c0       ??__Es_ShaderInstance@SDK_Eyeball@@YAXXZ 100325c0 f   eyeball.obj
 0001:000315e0       ??__Es_ShaderParams@SDK_EyeGlint@@YAXXZ 100325e0 f   eyeglint_dx9.obj
 0001:000315f0       ??__Es_ShaderInstance@SDK_EyeGlint@@YAXXZ 100325f0 f   eyeglint_dx9.obj
 0001:00031610       ??__Es_ShaderParams@SDK_EyeGlint_dx9@@YAXXZ 10032610 f   eyeglint_dx9.obj
 0001:00031620       ??__Es_ShaderInstance@SDK_EyeGlint_dx9@@YAXXZ 10032620 f   eyeglint_dx9.obj
 0001:00031640       ??__Es_ShaderParams@SDK_eyes@@YAXXZ 10032640 f   eyes.obj
 0001:00031650       ??__Es_ShaderInstance@SDK_eyes@@YAXXZ 10032650 f   eyes.obj
 0001:00031670       ??__Es_ShaderParams@SDK_Eyes_dx8@@YAXXZ 10032670 f   eyes.obj
 0001:00031680       ??__EBASETEXTURE@SDK_Eyes_dx8@@YAXXZ 10032680 f   eyes.obj
 0001:00031690       ??__EIRIS@SDK_Eyes_dx8@@YAXXZ 10032690 f   eyes.obj
 0001:000316c0       ??__EIRISFRAME@SDK_Eyes_dx8@@YAXXZ 100326c0 f   eyes.obj
 0001:000316f0       ??__EGLINT@SDK_Eyes_dx8@@YAXXZ 100326f0 f   eyes.obj
 0001:00031720       ??__EEYEORIGIN@SDK_Eyes_dx8@@YAXXZ 10032720 f   eyes.obj
 0001:00031750       ??__EEYEUP@SDK_Eyes_dx8@@YAXXZ 10032750 f   eyes.obj
 0001:00031780       ??__EIRISU@SDK_Eyes_dx8@@YAXXZ 10032780 f   eyes.obj
 0001:000317b0       ??__EIRISV@SDK_Eyes_dx8@@YAXXZ 100327b0 f   eyes.obj
 0001:000317e0       ??__EGLINTU@SDK_Eyes_dx8@@YAXXZ 100327e0 f   eyes.obj
 0001:00031810       ??__EGLINTV@SDK_Eyes_dx8@@YAXXZ 10032810 f   eyes.obj
 0001:00031840       ??__EDILATION@SDK_Eyes_dx8@@YAXXZ 10032840 f   eyes.obj
 0001:00031870       ??__EINTRO@SDK_Eyes_dx8@@YAXXZ 10032870 f   eyes.obj
 0001:000318a0       ??__EENTITYORIGIN@SDK_Eyes_dx8@@YAXXZ 100328a0 f   eyes.obj
 0001:000318d0       ??__EWARPPARAM@SDK_Eyes_dx8@@YAXXZ 100328d0 f   eyes.obj
 0001:00031900       ??__ECLOAKPASSENABLED@SDK_Eyes_dx8@@YAXXZ 10032900 f   eyes.obj
 0001:00031930       ??__ECLOAKFACTOR@SDK_Eyes_dx8@@YAXXZ 10032930 f   eyes.obj
 0001:00031960       ??__ECLOAKCOLORTINT@SDK_Eyes_dx8@@YAXXZ 10032960 f   eyes.obj
 0001:00031990       ??__EREFRACTAMOUNT@SDK_Eyes_dx8@@YAXXZ 10032990 f   eyes.obj
 0001:000319c0       ??__Es_ShaderInstance@SDK_Eyes_dx8@@YAXXZ 100329c0 f   eyes.obj
 0001:000319e0       ??__Er_flashlight_version2@@YAXXZ 100329e0 f   eyes_dx8_dx9_helper.obj
 0001:00031a10       ??__Es_ShaderParams@SDK_eyes@@YAXXZ 10032a10 f   eyes_dx9.obj
 0001:00031a20       ??__Es_ShaderInstance@SDK_eyes@@YAXXZ 10032a20 f   eyes_dx9.obj
 0001:00031a40       ??__Es_ShaderParams@SDK_Eyes_dx9@@YAXXZ 10032a40 f   eyes_dx9.obj
 0001:00031a50       ??__EIRIS@SDK_Eyes_dx9@@YAXXZ 10032a50 f   eyes_dx9.obj
 0001:00031a80       ??__EIRISFRAME@SDK_Eyes_dx9@@YAXXZ 10032a80 f   eyes_dx9.obj
 0001:00031ab0       ??__EGLINT@SDK_Eyes_dx9@@YAXXZ 10032ab0 f   eyes_dx9.obj
 0001:00031ae0       ??__EEYEORIGIN@SDK_Eyes_dx9@@YAXXZ 10032ae0 f   eyes_dx9.obj
 0001:00031b10       ??__EEYEUP@SDK_Eyes_dx9@@YAXXZ 10032b10 f   eyes_dx9.obj
 0001:00031b40       ??__EIRISU@SDK_Eyes_dx9@@YAXXZ 10032b40 f   eyes_dx9.obj
 0001:00031b70       ??__EIRISV@SDK_Eyes_dx9@@YAXXZ 10032b70 f   eyes_dx9.obj
 0001:00031ba0       ??__EGLINTU@SDK_Eyes_dx9@@YAXXZ 10032ba0 f   eyes_dx9.obj
 0001:00031bd0       ??__EGLINTV@SDK_Eyes_dx9@@YAXXZ 10032bd0 f   eyes_dx9.obj
 0001:00031c00       ??__EDILATION@SDK_Eyes_dx9@@YAXXZ 10032c00 f   eyes_dx9.obj
 0001:00031c30       ??__EINTRO@SDK_Eyes_dx9@@YAXXZ 10032c30 f   eyes_dx9.obj
 0001:00031c60       ??__EENTITYORIGIN@SDK_Eyes_dx9@@YAXXZ 10032c60 f   eyes_dx9.obj
 0001:00031c90       ??__EWARPPARAM@SDK_Eyes_dx9@@YAXXZ 10032c90 f   eyes_dx9.obj
 0001:00031cc0       ??__Es_ShaderInstance@SDK_Eyes_dx9@@YAXXZ 10032cc0 f   eyes_dx9.obj
 0001:00031ce0       ??__Es_ShaderParams@SDK_LightmappedGeneric_Decal@@YAXXZ 10032ce0 f   lightmappedgeneric_decal.obj
 0001:00031cf0       ??__Es_ShaderInstance@SDK_LightmappedGeneric_Decal@@YAXXZ 10032cf0 f   lightmappedgeneric_decal.obj
 0001:00031d10       ??__Es_ShaderParams@SDK_LightmappedGeneric_DX9@@YAXXZ 10032d10 f   lightmappedgeneric_dx9.obj
 0001:00031d20       ??__EALBEDO@SDK_LightmappedGeneric_DX9@@YAXXZ 10032d20 f   lightmappedgeneric_dx9.obj
 0001:00031d50       ??__ESELFILLUMTINT@SDK_LightmappedGeneric_DX9@@YAXXZ 10032d50 f   lightmappedgeneric_dx9.obj
 0001:00031d80       ??__EDETAIL@SDK_LightmappedGeneric_DX9@@YAXXZ 10032d80 f   lightmappedgeneric_dx9.obj
 0001:00031db0       ??__EDETAILFRAME@SDK_LightmappedGeneric_DX9@@YAXXZ 10032db0 f   lightmappedgeneric_dx9.obj
 0001:00031de0       ??__EDETAILSCALE@SDK_LightmappedGeneric_DX9@@YAXXZ 10032de0 f   lightmappedgeneric_dx9.obj
 0001:00031e10       ??__EENVMAP@SDK_LightmappedGeneric_DX9@@YAXXZ 10032e10 f   lightmappedgeneric_dx9.obj
 0001:00031e40       ??__EENVMAPFRAME@SDK_LightmappedGeneric_DX9@@YAXXZ 10032e40 f   lightmappedgeneric_dx9.obj
 0001:00031e70       ??__EENVMAPMASK@SDK_LightmappedGeneric_DX9@@YAXXZ 10032e70 f   lightmappedgeneric_dx9.obj
 0001:00031ea0       ??__EENVMAPMASKFRAME@SDK_LightmappedGeneric_DX9@@YAXXZ 10032ea0 f   lightmappedgeneric_dx9.obj
 0001:00031ed0       ??__EENVMAPMASKTRANSFORM@SDK_LightmappedGeneric_DX9@@YAXXZ 10032ed0 f   lightmappedgeneric_dx9.obj
 0001:00031f00       ??__EENVMAPTINT@SDK_LightmappedGeneric_DX9@@YAXXZ 10032f00 f   lightmappedgeneric_dx9.obj
 0001:00031f30       ??__EBUMPMAP@SDK_LightmappedGeneric_DX9@@YAXXZ 10032f30 f   lightmappedgeneric_dx9.obj
 0001:00031f60       ??__EBUMPFRAME@SDK_LightmappedGeneric_DX9@@YAXXZ 10032f60 f   lightmappedgeneric_dx9.obj
 0001:00031f90       ??__EBUMPTRANSFORM@SDK_LightmappedGeneric_DX9@@YAXXZ 10032f90 f   lightmappedgeneric_dx9.obj
 0001:00031fc0       ??__EBUMPTRANSFORM2@SDK_LightmappedGeneric_DX9@@YAXXZ 10032fc0 f   lightmappedgeneric_dx9.obj
 0001:00031ff0       ??__EENVMAPCONTRAST@SDK_LightmappedGeneric_DX9@@YAXXZ 10032ff0 f   lightmappedgeneric_dx9.obj
 0001:00032020       ??__EENVMAPSATURATION@SDK_LightmappedGeneric_DX9@@YAXXZ 10033020 f   lightmappedgeneric_dx9.obj
 0001:00032050       ??__EFRESNELREFLECTION@SDK_LightmappedGeneric_DX9@@YAXXZ 10033050 f   lightmappedgeneric_dx9.obj
 0001:00032080       ??__ENODIFFUSEBUMPLIGHTING@SDK_LightmappedGeneric_DX9@@YAXXZ 10033080 f   lightmappedgeneric_dx9.obj
 0001:000320b0       ??__EBUMPMAP2@SDK_LightmappedGeneric_DX9@@YAXXZ 100330b0 f   lightmappedgeneric_dx9.obj
 0001:000320e0       ??__EBUMPFRAME2@SDK_LightmappedGeneric_DX9@@YAXXZ 100330e0 f   lightmappedgeneric_dx9.obj
 0001:00032110       ??__EBASETEXTURE2@SDK_LightmappedGeneric_DX9@@YAXXZ 10033110 f   lightmappedgeneric_dx9.obj
 0001:00032140       ??__EFRAME2@SDK_LightmappedGeneric_DX9@@YAXXZ 10033140 f   lightmappedgeneric_dx9.obj
 0001:00032170       ??__EBASETEXTURENOENVMAP@SDK_LightmappedGeneric_DX9@@YAXXZ 10033170 f   lightmappedgeneric_dx9.obj
 0001:000321a0       ??__EBASETEXTURE2NOENVMAP@SDK_LightmappedGeneric_DX9@@YAXXZ 100331a0 f   lightmappedgeneric_dx9.obj
 0001:000321d0       ??__EDETAIL_ALPHA_MASK_BASE_TEXTURE@SDK_LightmappedGeneric_DX9@@YAXXZ 100331d0 f   lightmappedgeneric_dx9.obj
 0001:00032200       ??__ELIGHTWARPTEXTURE@SDK_LightmappedGeneric_DX9@@YAXXZ 10033200 f   lightmappedgeneric_dx9.obj
 0001:00032230       ??__EBLENDMODULATETEXTURE@SDK_LightmappedGeneric_DX9@@YAXXZ 10033230 f   lightmappedgeneric_dx9.obj
 0001:00032260       ??__EMASKEDBLENDING@SDK_LightmappedGeneric_DX9@@YAXXZ 10033260 f   lightmappedgeneric_dx9.obj
 0001:00032290       ??__EBLENDMASKTRANSFORM@SDK_LightmappedGeneric_DX9@@YAXXZ 10033290 f   lightmappedgeneric_dx9.obj
 0001:000322c0       ??__EDETAILBLENDMODE@SDK_LightmappedGeneric_DX9@@YAXXZ 100332c0 f   lightmappedgeneric_dx9.obj
 0001:000322f0       ??__EDETAILBLENDFACTOR@SDK_LightmappedGeneric_DX9@@YAXXZ 100332f0 f   lightmappedgeneric_dx9.obj
 0001:00032320       ??__EDETAILTINT@SDK_LightmappedGeneric_DX9@@YAXXZ 10033320 f   lightmappedgeneric_dx9.obj
 0001:00032350       ??__EALPHA2@SDK_LightmappedGeneric_DX9@@YAXXZ 10033350 f   lightmappedgeneric_dx9.obj
 0001:00032380       ??__EBUMPMASK@SDK_LightmappedGeneric_DX9@@YAXXZ 10033380 f   lightmappedgeneric_dx9.obj
 0001:000323b0       ??__ESEAMLESS_SCALE@SDK_LightmappedGeneric_DX9@@YAXXZ 100333b0 f   lightmappedgeneric_dx9.obj
 0001:000323e0       ??__ESSBUMP@SDK_LightmappedGeneric_DX9@@YAXXZ 100333e0 f   lightmappedgeneric_dx9.obj
 0001:00032410       ??__EALPHATESTREFERENCE@SDK_LightmappedGeneric_DX9@@YAXXZ 10033410 f   lightmappedgeneric_dx9.obj
 0001:00032440       ??__ERIPINFO@SDK_LightmappedGeneric_DX9@@YAXXZ 10033440 f   lightmappedgeneric_dx9.obj
 0001:00032470       ??__ECULLMODE@SDK_LightmappedGeneric_DX9@@YAXXZ 10033470 f   lightmappedgeneric_dx9.obj
 0001:000324a0       ??__Es_ShaderInstance@SDK_LightmappedGeneric_DX9@@YAXXZ 100334a0 f   lightmappedgeneric_dx9.obj
 0001:000324c0       ??__Emat_disable_lightwarp@@YAXXZ 100334c0 f   lightmappedgeneric_dx9_helper.obj
 0001:000324f0       ??__Emat_disable_fancy_blending@@YAXXZ 100334f0 f   lightmappedgeneric_dx9_helper.obj
 0001:00032520       ??__Emat_fullbright@@YAXXZ 10033520 f   lightmappedgeneric_dx9_helper.obj
 0001:00032550       ??__Es_ShaderParams@SDK_LightmappedReflective@@YAXXZ 10033550 f   lightmappedreflective.obj
 0001:00032560       ??__Es_ShaderInstance@SDK_LightmappedReflective@@YAXXZ 10033560 f   lightmappedreflective.obj
 0001:00032580       ??__Es_ShaderParams@SDK_LightmappedReflective_DX90@@YAXXZ 10033580 f   lightmappedreflective.obj
 0001:00032590       ??__EREFRACTTEXTURE@SDK_LightmappedReflective_DX90@@YAXXZ 10033590 f   lightmappedreflective.obj
 0001:000325c0       ??__EREFLECTTEXTURE@SDK_LightmappedReflective_DX90@@YAXXZ 100335c0 f   lightmappedreflective.obj
 0001:000325f0       ??__EREFRACTAMOUNT@SDK_LightmappedReflective_DX90@@YAXXZ 100335f0 f   lightmappedreflective.obj
 0001:00032620       ??__EREFRACTTINT@SDK_LightmappedReflective_DX90@@YAXXZ 10033620 f   lightmappedreflective.obj
 0001:00032650       ??__EREFLECTAMOUNT@SDK_LightmappedReflective_DX90@@YAXXZ 10033650 f   lightmappedreflective.obj
 0001:00032680       ??__EREFLECTTINT@SDK_LightmappedReflective_DX90@@YAXXZ 10033680 f   lightmappedreflective.obj
 0001:000326b0       ??__ENORMALMAP@SDK_LightmappedReflective_DX90@@YAXXZ 100336b0 f   lightmappedreflective.obj
 0001:000326e0       ??__EBUMPFRAME@SDK_LightmappedReflective_DX90@@YAXXZ 100336e0 f   lightmappedreflective.obj
 0001:00032710       ??__EBUMPTRANSFORM@SDK_LightmappedReflective_DX90@@YAXXZ 10033710 f   lightmappedreflective.obj
 0001:00032740       ??__EENVMAPMASK@SDK_LightmappedReflective_DX90@@YAXXZ 10033740 f   lightmappedreflective.obj
 0001:00032770       ??__EENVMAPMASKFRAME@SDK_LightmappedReflective_DX90@@YAXXZ 10033770 f   lightmappedreflective.obj
 0001:000327a0       ??__EFRESNELPOWER@SDK_LightmappedReflective_DX90@@YAXXZ 100337a0 f   lightmappedreflective.obj
 0001:000327d0       ??__EMAXREFLECTIVITY@SDK_LightmappedReflective_DX90@@YAXXZ 100337d0 f   lightmappedreflective.obj
 0001:00032800       ??__EMINREFLECTIVITY@SDK_LightmappedReflective_DX90@@YAXXZ 10033800 f   lightmappedreflective.obj
 0001:00032830       ??__Es_ShaderInstance@SDK_LightmappedReflective_DX90@@YAXXZ 10033830 f   lightmappedreflective.obj
 0001:00032850       ??__Es_ShaderParams@SDK_LightmappedTwoTexture@@YAXXZ 10033850 f   lightmappedtwotexture.obj
 0001:00032860       ??__EDETAIL@SDK_LightmappedTwoTexture@@YAXXZ 10033860 f   lightmappedtwotexture.obj
 0001:00032890       ??__EDETAILSCALE@SDK_LightmappedTwoTexture@@YAXXZ 10033890 f   lightmappedtwotexture.obj
 0001:000328c0       ??__EENVMAP@SDK_LightmappedTwoTexture@@YAXXZ 100338c0 f   lightmappedtwotexture.obj
 0001:000328f0       ??__EENVMAPFRAME@SDK_LightmappedTwoTexture@@YAXXZ 100338f0 f   lightmappedtwotexture.obj
 0001:00032920       ??__EENVMAPMASK@SDK_LightmappedTwoTexture@@YAXXZ 10033920 f   lightmappedtwotexture.obj
 0001:00032950       ??__EENVMAPMASKFRAME@SDK_LightmappedTwoTexture@@YAXXZ 10033950 f   lightmappedtwotexture.obj
 0001:00032980       ??__EENVMAPMASKSCALE@SDK_LightmappedTwoTexture@@YAXXZ 10033980 f   lightmappedtwotexture.obj
 0001:000329b0       ??__EENVMAPTINT@SDK_LightmappedTwoTexture@@YAXXZ 100339b0 f   lightmappedtwotexture.obj
 0001:000329e0       ??__Es_ShaderInstance@SDK_LightmappedTwoTexture@@YAXXZ 100339e0 f   lightmappedtwotexture.obj
 0001:00032a00       ??__Es_ShaderParams@SDK_Refract@@YAXXZ 10033a00 f   refract.obj
 0001:00032a10       ??__Es_ShaderInstance@SDK_Refract@@YAXXZ 10033a10 f   refract.obj
 0001:00032a30       ??__Es_ShaderParams@SDK_Refract_DX90@@YAXXZ 10033a30 f   refract.obj
 0001:00032a40       ??__ECOLOR@SDK_Refract_DX90@@YAXXZ 10033a40 f   refract.obj
 0001:00032a50       ??__EALPHA@SDK_Refract_DX90@@YAXXZ 10033a50 f   refract.obj
 0001:00032a60       ??__EREFRACTAMOUNT@SDK_Refract_DX90@@YAXXZ 10033a60 f   refract.obj
 0001:00032a90       ??__EREFRACTTINT@SDK_Refract_DX90@@YAXXZ 10033a90 f   refract.obj
 0001:00032ac0       ??__ENORMALMAP@SDK_Refract_DX90@@YAXXZ 10033ac0 f   refract.obj
 0001:00032af0       ??__ENORMALMAP2@SDK_Refract_DX90@@YAXXZ 10033af0 f   refract.obj
 0001:00032b20       ??__EBUMPFRAME@SDK_Refract_DX90@@YAXXZ 10033b20 f   refract.obj
 0001:00032b50       ??__EBUMPFRAME2@SDK_Refract_DX90@@YAXXZ 10033b50 f   refract.obj
 0001:00032b80       ??__EBUMPTRANSFORM@SDK_Refract_DX90@@YAXXZ 10033b80 f   refract.obj
 0001:00032bb0       ??__EBUMPTRANSFORM2@SDK_Refract_DX90@@YAXXZ 10033bb0 f   refract.obj
 0001:00032be0       ??__ETIME@SDK_Refract_DX90@@YAXXZ 10033be0 f   refract.obj
 0001:00032c10       ??__EBLURAMOUNT@SDK_Refract_DX90@@YAXXZ 10033c10 f   refract.obj
 0001:00032c40       ??__EFADEOUTONSILHOUETTE@SDK_Refract_DX90@@YAXXZ 10033c40 f   refract.obj
 0001:00032c70       ??__EENVMAP@SDK_Refract_DX90@@YAXXZ 10033c70 f   refract.obj
 0001:00032ca0       ??__EENVMAPFRAME@SDK_Refract_DX90@@YAXXZ 10033ca0 f   refract.obj
 0001:00032cd0       ??__EENVMAPTINT@SDK_Refract_DX90@@YAXXZ 10033cd0 f   refract.obj
 0001:00032d00       ??__EENVMAPCONTRAST@SDK_Refract_DX90@@YAXXZ 10033d00 f   refract.obj
 0001:00032d30       ??__EENVMAPSATURATION@SDK_Refract_DX90@@YAXXZ 10033d30 f   refract.obj
 0001:00032d60       ??__EREFRACTTINTTEXTURE@SDK_Refract_DX90@@YAXXZ 10033d60 f   refract.obj
 0001:00032d90       ??__EREFRACTTINTTEXTUREFRAME@SDK_Refract_DX90@@YAXXZ 10033d90 f   refract.obj
 0001:00032dc0       ??__EFRESNELREFLECTION@SDK_Refract_DX90@@YAXXZ 10033dc0 f   refract.obj
 0001:00032df0       ??__ENOWRITEZ@SDK_Refract_DX90@@YAXXZ 10033df0 f   refract.obj
 0001:00032e20       ??__EMASKED@SDK_Refract_DX90@@YAXXZ 10033e20 f   refract.obj
 0001:00032e50       ??__EVERTEXCOLORMODULATE@SDK_Refract_DX90@@YAXXZ 10033e50 f   refract.obj
 0001:00032e80       ??__Es_ShaderInstance@SDK_Refract_DX90@@YAXXZ 10033e80 f   refract.obj
 0001:00032ea0       ??__Es_ShaderParams@SDK_screenspace_general@@YAXXZ 10033ea0 f   screenspace_general.obj
 0001:00032eb0       ??__Es_ShaderInstance@SDK_screenspace_general@@YAXXZ 10033eb0 f   screenspace_general.obj
 0001:00032ed0       ??__Es_ShaderParams@SDK_screenspace_general_dx9@@YAXXZ 10033ed0 f   screenspace_general.obj
 0001:00032ee0       ??__EC0_X@SDK_screenspace_general_dx9@@YAXXZ 10033ee0 f   screenspace_general.obj
 0001:00032f10       ??__EC0_Y@SDK_screenspace_general_dx9@@YAXXZ 10033f10 f   screenspace_general.obj
 0001:00032f40       ??__EC0_Z@SDK_screenspace_general_dx9@@YAXXZ 10033f40 f   screenspace_general.obj
 0001:00032f70       ??__EC0_W@SDK_screenspace_general_dx9@@YAXXZ 10033f70 f   screenspace_general.obj
 0001:00032fa0       ??__EC1_X@SDK_screenspace_general_dx9@@YAXXZ 10033fa0 f   screenspace_general.obj
 0001:00032fd0       ??__EC1_Y@SDK_screenspace_general_dx9@@YAXXZ 10033fd0 f   screenspace_general.obj
 0001:00033000       ??__EC1_Z@SDK_screenspace_general_dx9@@YAXXZ 10034000 f   screenspace_general.obj
 0001:00033030       ??__EC1_W@SDK_screenspace_general_dx9@@YAXXZ 10034030 f   screenspace_general.obj
 0001:00033060       ??__EC2_X@SDK_screenspace_general_dx9@@YAXXZ 10034060 f   screenspace_general.obj
 0001:00033090       ??__EC2_Y@SDK_screenspace_general_dx9@@YAXXZ 10034090 f   screenspace_general.obj
 0001:000330c0       ??__EC2_Z@SDK_screenspace_general_dx9@@YAXXZ 100340c0 f   screenspace_general.obj
 0001:000330f0       ??__EC2_W@SDK_screenspace_general_dx9@@YAXXZ 100340f0 f   screenspace_general.obj
 0001:00033120       ??__EC3_X@SDK_screenspace_general_dx9@@YAXXZ 10034120 f   screenspace_general.obj
 0001:00033150       ??__EC3_Y@SDK_screenspace_general_dx9@@YAXXZ 10034150 f   screenspace_general.obj
 0001:00033180       ??__EC3_Z@SDK_screenspace_general_dx9@@YAXXZ 10034180 f   screenspace_general.obj
 0001:000331b0       ??__EC3_W@SDK_screenspace_general_dx9@@YAXXZ 100341b0 f   screenspace_general.obj
 0001:000331e0       ??__EPIXSHADER@SDK_screenspace_general_dx9@@YAXXZ 100341e0 f   screenspace_general.obj
 0001:00033210       ??__EDISABLE_COLOR_WRITES@SDK_screenspace_general_dx9@@YAXXZ 10034210 f   screenspace_general.obj
 0001:00033240       ??__EALPHATESTED@SDK_screenspace_general_dx9@@YAXXZ 10034240 f   screenspace_general.obj
 0001:00033270       ??__ETEXTURE1@SDK_screenspace_general_dx9@@YAXXZ 10034270 f   screenspace_general.obj
 0001:000332a0       ??__ETEXTURE2@SDK_screenspace_general_dx9@@YAXXZ 100342a0 f   screenspace_general.obj
 0001:000332d0       ??__ETEXTURE3@SDK_screenspace_general_dx9@@YAXXZ 100342d0 f   screenspace_general.obj
 0001:00033300       ??__ELINEARREAD_BASETEXTURE@SDK_screenspace_general_dx9@@YAXXZ 10034300 f   screenspace_general.obj
 0001:00033330       ??__ELINEARREAD_TEXTURE1@SDK_screenspace_general_dx9@@YAXXZ 10034330 f   screenspace_general.obj
 0001:00033360       ??__ELINEARREAD_TEXTURE2@SDK_screenspace_general_dx9@@YAXXZ 10034360 f   screenspace_general.obj
 0001:00033390       ??__ELINEARREAD_TEXTURE3@SDK_screenspace_general_dx9@@YAXXZ 10034390 f   screenspace_general.obj
 0001:000333c0       ??__ELINEARWRITE@SDK_screenspace_general_dx9@@YAXXZ 100343c0 f   screenspace_general.obj
 0001:000333f0       ??__EX360APPCHOOSER@SDK_screenspace_general_dx9@@YAXXZ 100343f0 f   screenspace_general.obj
 0001:00033420       ??__Es_ShaderInstance@SDK_screenspace_general_dx9@@YAXXZ 10034420 f   screenspace_general.obj
 0001:00033440       ??__Emat_fullbright@@YAXXZ 10034440 f   skin_dx9_helper.obj
 0001:00033470       ??__Er_lightwarpidentity@@YAXXZ 10034470 f   skin_dx9_helper.obj
 0001:000334a0       ??__Er_rimlight@@YAXXZ     100344a0 f   skin_dx9_helper.obj
 0001:000334d0       ??__Es_ShaderParams@SDK_Spritecard@@YAXXZ 100344d0 f   spritecard.obj
 0001:000334e0       ??__EDEPTHBLEND@SDK_Spritecard@@YAXXZ 100344e0 f   spritecard.obj
 0001:00033510       ??__EDEPTHBLENDSCALE@SDK_Spritecard@@YAXXZ 10034510 f   spritecard.obj
 0001:00033540       ??__EORIENTATION@SDK_Spritecard@@YAXXZ 10034540 f   spritecard.obj
 0001:00033570       ??__EADDBASETEXTURE2@SDK_Spritecard@@YAXXZ 10034570 f   spritecard.obj
 0001:000335a0       ??__EOVERBRIGHTFACTOR@SDK_Spritecard@@YAXXZ 100345a0 f   spritecard.obj
 0001:000335d0       ??__EDUALSEQUENCE@SDK_Spritecard@@YAXXZ 100345d0 f   spritecard.obj
 0001:00033600       ??__ESEQUENCE_BLEND_MODE@SDK_Spritecard@@YAXXZ 10034600 f   spritecard.obj
 0001:00033630       ??__EMAXLUMFRAMEBLEND1@SDK_Spritecard@@YAXXZ 10034630 f   spritecard.obj
 0001:00033660       ??__EMAXLUMFRAMEBLEND2@SDK_Spritecard@@YAXXZ 10034660 f   spritecard.obj
 0001:00033690       ??__ERAMPTEXTURE@SDK_Spritecard@@YAXXZ 10034690 f   spritecard.obj
 0001:000336c0       ??__EZOOMANIMATESEQ2@SDK_Spritecard@@YAXXZ 100346c0 f   spritecard.obj
 0001:000336f0       ??__EEXTRACTGREENALPHA@SDK_Spritecard@@YAXXZ 100346f0 f   spritecard.obj
 0001:00033720       ??__EADDOVERBLEND@SDK_Spritecard@@YAXXZ 10034720 f   spritecard.obj
 0001:00033750       ??__EADDSELF@SDK_Spritecard@@YAXXZ 10034750 f   spritecard.obj
 0001:00033780       ??__EBLENDFRAMES@SDK_Spritecard@@YAXXZ 10034780 f   spritecard.obj
 0001:000337b0       ??__EMINSIZE@SDK_Spritecard@@YAXXZ 100347b0 f   spritecard.obj
 0001:000337e0       ??__ESTARTFADESIZE@SDK_Spritecard@@YAXXZ 100347e0 f   spritecard.obj
 0001:00033810       ??__EENDFADESIZE@SDK_Spritecard@@YAXXZ 10034810 f   spritecard.obj
 0001:00033840       ??__EMAXSIZE@SDK_Spritecard@@YAXXZ 10034840 f   spritecard.obj
 0001:00033870       ??__EUSEINSTANCING@SDK_Spritecard@@YAXXZ 10034870 f   spritecard.obj
 0001:000338a0       ??__ESPLINETYPE@SDK_Spritecard@@YAXXZ 100348a0 f   spritecard.obj
 0001:000338d0       ??__EMAXDISTANCE@SDK_Spritecard@@YAXXZ 100348d0 f   spritecard.obj
 0001:00033900       ??__EFARFADEINTERVAL@SDK_Spritecard@@YAXXZ 10034900 f   spritecard.obj
 0001:00033930       ??__Es_ShaderInstance@SDK_Spritecard@@YAXXZ 10034930 f   spritecard.obj
 0001:00033950       ??__Es_ShaderParams@SDK_Teeth@@YAXXZ 10034950 f   teeth.obj
 0001:00033960       ??__Es_ShaderInstance@SDK_Teeth@@YAXXZ 10034960 f   teeth.obj
 0001:00033980       ??__Es_ShaderParams@SDK_Teeth_DX9@@YAXXZ 10034980 f   teeth.obj
 0001:00033990       ??__EILLUMFACTOR@SDK_Teeth_DX9@@YAXXZ 10034990 f   teeth.obj
 0001:000339c0       ??__EFORWARD@SDK_Teeth_DX9@@YAXXZ 100349c0 f   teeth.obj
 0001:000339f0       ??__EBUMPMAP@SDK_Teeth_DX9@@YAXXZ 100349f0 f   teeth.obj
 0001:00033a20       ??__EPHONGEXPONENT@SDK_Teeth_DX9@@YAXXZ 10034a20 f   teeth.obj
 0001:00033a50       ??__EINTRO@SDK_Teeth_DX9@@YAXXZ 10034a50 f   teeth.obj
 0001:00033a80       ??__EENTITYORIGIN@SDK_Teeth_DX9@@YAXXZ 10034a80 f   teeth.obj
 0001:00033ab0       ??__EWARPPARAM@SDK_Teeth_DX9@@YAXXZ 10034ab0 f   teeth.obj
 0001:00033ae0       ??__Es_ShaderInstance@SDK_Teeth_DX9@@YAXXZ 10034ae0 f   teeth.obj
 0001:00033b00       ??__Es_ShaderParams@SDK_UnlitGeneric@@YAXXZ 10034b00 f   unlitgeneric_dx9.obj
 0001:00033b10       ??__EALBEDO@SDK_UnlitGeneric@@YAXXZ 10034b10 f   unlitgeneric_dx9.obj
 0001:00033b40       ??__EDETAIL@SDK_UnlitGeneric@@YAXXZ 10034b40 f   unlitgeneric_dx9.obj
 0001:00033b70       ??__EDETAILFRAME@SDK_UnlitGeneric@@YAXXZ 10034b70 f   unlitgeneric_dx9.obj
 0001:00033ba0       ??__EDETAILSCALE@SDK_UnlitGeneric@@YAXXZ 10034ba0 f   unlitgeneric_dx9.obj
 0001:00033bd0       ??__EENVMAP@SDK_UnlitGeneric@@YAXXZ 10034bd0 f   unlitgeneric_dx9.obj
 0001:00033c00       ??__EENVMAPFRAME@SDK_UnlitGeneric@@YAXXZ 10034c00 f   unlitgeneric_dx9.obj
 0001:00033c30       ??__EENVMAPMASK@SDK_UnlitGeneric@@YAXXZ 10034c30 f   unlitgeneric_dx9.obj
 0001:00033c60       ??__EENVMAPMASKFRAME@SDK_UnlitGeneric@@YAXXZ 10034c60 f   unlitgeneric_dx9.obj
 0001:00033c90       ??__EENVMAPMASKTRANSFORM@SDK_UnlitGeneric@@YAXXZ 10034c90 f   unlitgeneric_dx9.obj
 0001:00033cc0       ??__EENVMAPTINT@SDK_UnlitGeneric@@YAXXZ 10034cc0 f   unlitgeneric_dx9.obj
 0001:00033cf0       ??__EENVMAPCONTRAST@SDK_UnlitGeneric@@YAXXZ 10034cf0 f   unlitgeneric_dx9.obj
 0001:00033d20       ??__EENVMAPSATURATION@SDK_UnlitGeneric@@YAXXZ 10034d20 f   unlitgeneric_dx9.obj
 0001:00033d50       ??__EALPHATESTREFERENCE@SDK_UnlitGeneric@@YAXXZ 10034d50 f   unlitgeneric_dx9.obj
 0001:00033d80       ??__EVERTEXALPHATEST@SDK_UnlitGeneric@@YAXXZ 10034d80 f   unlitgeneric_dx9.obj
 0001:00033db0       ??__EHDRCOLORSCALE@SDK_UnlitGeneric@@YAXXZ 10034db0 f   unlitgeneric_dx9.obj
 0001:00033de0       ??__EPHONGEXPONENT@SDK_UnlitGeneric@@YAXXZ 10034de0 f   unlitgeneric_dx9.obj
 0001:00033e10       ??__EPHONGTINT@SDK_UnlitGeneric@@YAXXZ 10034e10 f   unlitgeneric_dx9.obj
 0001:00033e40       ??__EPHONGALBEDOTINT@SDK_UnlitGeneric@@YAXXZ 10034e40 f   unlitgeneric_dx9.obj
 0001:00033e70       ??__ELIGHTWARPTEXTURE@SDK_UnlitGeneric@@YAXXZ 10034e70 f   unlitgeneric_dx9.obj
 0001:00033ea0       ??__EPHONGWARPTEXTURE@SDK_UnlitGeneric@@YAXXZ 10034ea0 f   unlitgeneric_dx9.obj
 0001:00033ed0       ??__EPHONGFRESNELRANGES@SDK_UnlitGeneric@@YAXXZ 10034ed0 f   unlitgeneric_dx9.obj
 0001:00033f00       ??__EPHONGBOOST@SDK_UnlitGeneric@@YAXXZ 10034f00 f   unlitgeneric_dx9.obj
 0001:00033f30       ??__EPHONGEXPONENTTEXTURE@SDK_UnlitGeneric@@YAXXZ 10034f30 f   unlitgeneric_dx9.obj
 0001:00033f60       ??__EPHONG@SDK_UnlitGeneric@@YAXXZ 10034f60 f   unlitgeneric_dx9.obj
 0001:00033f90       ??__EDETAILBLENDMODE@SDK_UnlitGeneric@@YAXXZ 10034f90 f   unlitgeneric_dx9.obj
 0001:00033fc0       ??__EDETAILBLENDFACTOR@SDK_UnlitGeneric@@YAXXZ 10034fc0 f   unlitgeneric_dx9.obj
 0001:00033ff0       ??__EDETAILTEXTURETRANSFORM@SDK_UnlitGeneric@@YAXXZ 10034ff0 f   unlitgeneric_dx9.obj
 0001:00034020       ??__ESELFILLUMMASK@SDK_UnlitGeneric@@YAXXZ 10035020 f   unlitgeneric_dx9.obj
 0001:00034050       ??__EDISTANCEALPHA@SDK_UnlitGeneric@@YAXXZ 10035050 f   unlitgeneric_dx9.obj
 0001:00034080       ??__EDISTANCEALPHAFROMDETAIL@SDK_UnlitGeneric@@YAXXZ 10035080 f   unlitgeneric_dx9.obj
 0001:000340b0       ??__ESOFTEDGES@SDK_UnlitGeneric@@YAXXZ 100350b0 f   unlitgeneric_dx9.obj
 0001:000340e0       ??__ESCALEEDGESOFTNESSBASEDONSCREENRES@SDK_UnlitGeneric@@YAXXZ 100350e0 f   unlitgeneric_dx9.obj
 0001:00034110       ??__EEDGESOFTNESSSTART@SDK_UnlitGeneric@@YAXXZ 10035110 f   unlitgeneric_dx9.obj
 0001:00034140       ??__EEDGESOFTNESSEND@SDK_UnlitGeneric@@YAXXZ 10035140 f   unlitgeneric_dx9.obj
 0001:00034170       ??__EGLOW@SDK_UnlitGeneric@@YAXXZ 10035170 f   unlitgeneric_dx9.obj
 0001:000341a0       ??__EGLOWCOLOR@SDK_UnlitGeneric@@YAXXZ 100351a0 f   unlitgeneric_dx9.obj
 0001:000341d0       ??__EGLOWALPHA@SDK_UnlitGeneric@@YAXXZ 100351d0 f   unlitgeneric_dx9.obj
 0001:00034200       ??__EGLOWSTART@SDK_UnlitGeneric@@YAXXZ 10035200 f   unlitgeneric_dx9.obj
 0001:00034230       ??__EGLOWEND@SDK_UnlitGeneric@@YAXXZ 10035230 f   unlitgeneric_dx9.obj
 0001:00034260       ??__EGLOWX@SDK_UnlitGeneric@@YAXXZ 10035260 f   unlitgeneric_dx9.obj
 0001:00034290       ??__EGLOWY@SDK_UnlitGeneric@@YAXXZ 10035290 f   unlitgeneric_dx9.obj
 0001:000342c0       ??__EOUTLINE@SDK_UnlitGeneric@@YAXXZ 100352c0 f   unlitgeneric_dx9.obj
 0001:000342f0       ??__EOUTLINECOLOR@SDK_UnlitGeneric@@YAXXZ 100352f0 f   unlitgeneric_dx9.obj
 0001:00034320       ??__EOUTLINEALPHA@SDK_UnlitGeneric@@YAXXZ 10035320 f   unlitgeneric_dx9.obj
 0001:00034350       ??__EOUTLINESTART0@SDK_UnlitGeneric@@YAXXZ 10035350 f   unlitgeneric_dx9.obj
 0001:00034380       ??__EOUTLINESTART1@SDK_UnlitGeneric@@YAXXZ 10035380 f   unlitgeneric_dx9.obj
 0001:000343b0       ??__EOUTLINEEND0@SDK_UnlitGeneric@@YAXXZ 100353b0 f   unlitgeneric_dx9.obj
 0001:000343e0       ??__EOUTLINEEND1@SDK_UnlitGeneric@@YAXXZ 100353e0 f   unlitgeneric_dx9.obj
 0001:00034410       ??__ESCALEOUTLINESOFTNESSBASEDONSCREENRES@SDK_UnlitGeneric@@YAXXZ 10035410 f   unlitgeneric_dx9.obj
 0001:00034440       ??__ESEPARATEDETAILUVS@SDK_UnlitGeneric@@YAXXZ 10035440 f   unlitgeneric_dx9.obj
 0001:00034470       ??__EGAMMACOLORREAD@SDK_UnlitGeneric@@YAXXZ 10035470 f   unlitgeneric_dx9.obj
 0001:000344a0       ??__ELINEARWRITE@SDK_UnlitGeneric@@YAXXZ 100354a0 f   unlitgeneric_dx9.obj
 0001:000344d0       ??__EDEPTHBLEND@SDK_UnlitGeneric@@YAXXZ 100354d0 f   unlitgeneric_dx9.obj
 0001:00034500       ??__EDEPTHBLENDSCALE@SDK_UnlitGeneric@@YAXXZ 10035500 f   unlitgeneric_dx9.obj
 0001:00034530       ??__ERECEIVEFLASHLIGHT@SDK_UnlitGeneric@@YAXXZ 10035530 f   unlitgeneric_dx9.obj
 0001:00034560       ??__ERIPINFO@SDK_UnlitGeneric@@YAXXZ 10035560 f   unlitgeneric_dx9.obj
 0001:00034590       ??__ECULLMODE@SDK_UnlitGeneric@@YAXXZ 10035590 f   unlitgeneric_dx9.obj
 0001:000345c0       ??__Es_ShaderInstance@SDK_UnlitGeneric@@YAXXZ 100355c0 f   unlitgeneric_dx9.obj
 0001:000345e0       ??__Es_ShaderParams@SDK_UnlitTwoTexture@@YAXXZ 100355e0 f   unlittwotexture_dx9.obj
 0001:000345f0       ??__Es_ShaderInstance@SDK_UnlitTwoTexture@@YAXXZ 100355f0 f   unlittwotexture_dx9.obj
 0001:00034610       ??__Es_ShaderParams@SDK_UnlitTwoTexture_DX9@@YAXXZ 10035610 f   unlittwotexture_dx9.obj
 0001:00034620       ??__ETEXTURE2@SDK_UnlitTwoTexture_DX9@@YAXXZ 10035620 f   unlittwotexture_dx9.obj
 0001:00034650       ??__EFRAME2@SDK_UnlitTwoTexture_DX9@@YAXXZ 10035650 f   unlittwotexture_dx9.obj
 0001:00034680       ??__ETEXTURE2TRANSFORM@SDK_UnlitTwoTexture_DX9@@YAXXZ 10035680 f   unlittwotexture_dx9.obj
 0001:000346b0       ??__ECLOAKPASSENABLED@SDK_UnlitTwoTexture_DX9@@YAXXZ 100356b0 f   unlittwotexture_dx9.obj
 0001:000346e0       ??__ECLOAKFACTOR@SDK_UnlitTwoTexture_DX9@@YAXXZ 100356e0 f   unlittwotexture_dx9.obj
 0001:00034710       ??__ECLOAKCOLORTINT@SDK_UnlitTwoTexture_DX9@@YAXXZ 10035710 f   unlittwotexture_dx9.obj
 0001:00034740       ??__EREFRACTAMOUNT@SDK_UnlitTwoTexture_DX9@@YAXXZ 10035740 f   unlittwotexture_dx9.obj
 0001:00034770       ??__Es_ShaderInstance@SDK_UnlitTwoTexture_DX9@@YAXXZ 10035770 f   unlittwotexture_dx9.obj
 0001:00034790       ??__Es_ShaderParams@SDK_VertexLitGeneric@@YAXXZ 10035790 f   vertexlitgeneric_dx9.obj
 0001:000347a0       ??__EALBEDO@SDK_VertexLitGeneric@@YAXXZ 100357a0 f   vertexlitgeneric_dx9.obj
 0001:000347d0       ??__ECOMPRESS@SDK_VertexLitGeneric@@YAXXZ 100357d0 f   vertexlitgeneric_dx9.obj
 0001:00034800       ??__ESTRETCH@SDK_VertexLitGeneric@@YAXXZ 10035800 f   vertexlitgeneric_dx9.obj
 0001:00034830       ??__ESELFILLUMTINT@SDK_VertexLitGeneric@@YAXXZ 10035830 f   vertexlitgeneric_dx9.obj
 0001:00034860       ??__EDETAIL@SDK_VertexLitGeneric@@YAXXZ 10035860 f   vertexlitgeneric_dx9.obj
 0001:00034890       ??__EDETAILFRAME@SDK_VertexLitGeneric@@YAXXZ 10035890 f   vertexlitgeneric_dx9.obj
 0001:000348c0       ??__EDETAILSCALE@SDK_VertexLitGeneric@@YAXXZ 100358c0 f   vertexlitgeneric_dx9.obj
 0001:000348f0       ??__EENVMAP@SDK_VertexLitGeneric@@YAXXZ 100358f0 f   vertexlitgeneric_dx9.obj
 0001:00034920       ??__EENVMAPFRAME@SDK_VertexLitGeneric@@YAXXZ 10035920 f   vertexlitgeneric_dx9.obj
 0001:00034950       ??__EENVMAPMASK@SDK_VertexLitGeneric@@YAXXZ 10035950 f   vertexlitgeneric_dx9.obj
 0001:00034980       ??__EENVMAPMASKFRAME@SDK_VertexLitGeneric@@YAXXZ 10035980 f   vertexlitgeneric_dx9.obj
 0001:000349b0       ??__EENVMAPMASKTRANSFORM@SDK_VertexLitGeneric@@YAXXZ 100359b0 f   vertexlitgeneric_dx9.obj
 0001:000349e0       ??__EENVMAPTINT@SDK_VertexLitGeneric@@YAXXZ 100359e0 f   vertexlitgeneric_dx9.obj
 0001:00034a10       ??__EBUMPMAP@SDK_VertexLitGeneric@@YAXXZ 10035a10 f   vertexlitgeneric_dx9.obj
 0001:00034a40       ??__EBUMPCOMPRESS@SDK_VertexLitGeneric@@YAXXZ 10035a40 f   vertexlitgeneric_dx9.obj
 0001:00034a70       ??__EBUMPSTRETCH@SDK_VertexLitGeneric@@YAXXZ 10035a70 f   vertexlitgeneric_dx9.obj
 0001:00034aa0       ??__EBUMPFRAME@SDK_VertexLitGeneric@@YAXXZ 10035aa0 f   vertexlitgeneric_dx9.obj
 0001:00034ad0       ??__EBUMPTRANSFORM@SDK_VertexLitGeneric@@YAXXZ 10035ad0 f   vertexlitgeneric_dx9.obj
 0001:00034b00       ??__EENVMAPCONTRAST@SDK_VertexLitGeneric@@YAXXZ 10035b00 f   vertexlitgeneric_dx9.obj
 0001:00034b30       ??__EENVMAPSATURATION@SDK_VertexLitGeneric@@YAXXZ 10035b30 f   vertexlitgeneric_dx9.obj
 0001:00034b60       ??__ESELFILLUM_ENVMAPMASK_ALPHA@SDK_VertexLitGeneric@@YAXXZ 10035b60 f   vertexlitgeneric_dx9.obj
 0001:00034b90       ??__ESELFILLUMFRESNEL@SDK_VertexLitGeneric@@YAXXZ 10035b90 f   vertexlitgeneric_dx9.obj
 0001:00034bc0       ??__ESELFILLUMFRESNELMINMAXEXP@SDK_VertexLitGeneric@@YAXXZ 10035bc0 f   vertexlitgeneric_dx9.obj
 0001:00034bf0       ??__EALPHATESTREFERENCE@SDK_VertexLitGeneric@@YAXXZ 10035bf0 f   vertexlitgeneric_dx9.obj
 0001:00034c20       ??__EFLASHLIGHTNOLAMBERT@SDK_VertexLitGeneric@@YAXXZ 10035c20 f   vertexlitgeneric_dx9.obj
 0001:00034c50       ??__EAMBIENTONLY@SDK_VertexLitGeneric@@YAXXZ 10035c50 f   vertexlitgeneric_dx9.obj
 0001:00034c80       ??__EPHONGEXPONENT@SDK_VertexLitGeneric@@YAXXZ 10035c80 f   vertexlitgeneric_dx9.obj
 0001:00034cb0       ??__EPHONGTINT@SDK_VertexLitGeneric@@YAXXZ 10035cb0 f   vertexlitgeneric_dx9.obj
 0001:00034ce0       ??__EPHONGALBEDOTINT@SDK_VertexLitGeneric@@YAXXZ 10035ce0 f   vertexlitgeneric_dx9.obj
 0001:00034d10       ??__ELIGHTWARPTEXTURE@SDK_VertexLitGeneric@@YAXXZ 10035d10 f   vertexlitgeneric_dx9.obj
 0001:00034d40       ??__EPHONGWARPTEXTURE@SDK_VertexLitGeneric@@YAXXZ 10035d40 f   vertexlitgeneric_dx9.obj
 0001:00034d70       ??__EPHONGFRESNELRANGES@SDK_VertexLitGeneric@@YAXXZ 10035d70 f   vertexlitgeneric_dx9.obj
 0001:00034da0       ??__EPHONGBOOST@SDK_VertexLitGeneric@@YAXXZ 10035da0 f   vertexlitgeneric_dx9.obj
 0001:00034dd0       ??__EPHONGEXPONENTTEXTURE@SDK_VertexLitGeneric@@YAXXZ 10035dd0 f   vertexlitgeneric_dx9.obj
 0001:00034e00       ??__EPHONG@SDK_VertexLitGeneric@@YAXXZ 10035e00 f   vertexlitgeneric_dx9.obj
 0001:00034e30       ??__EBASEMAPALPHAPHONGMASK@SDK_VertexLitGeneric@@YAXXZ 10035e30 f   vertexlitgeneric_dx9.obj
 0001:00034e60       ??__EINVERTPHONGMASK@SDK_VertexLitGeneric@@YAXXZ 10035e60 f   vertexlitgeneric_dx9.obj
 0001:00034e90       ??__EENVMAPFRESNEL@SDK_VertexLitGeneric@@YAXXZ 10035e90 f   vertexlitgeneric_dx9.obj
 0001:00034ec0       ??__ESELFILLUMMASK@SDK_VertexLitGeneric@@YAXXZ 10035ec0 f   vertexlitgeneric_dx9.obj
 0001:00034ef0       ??__EDETAILBLENDMODE@SDK_VertexLitGeneric@@YAXXZ 10035ef0 f   vertexlitgeneric_dx9.obj
 0001:00034f20       ??__EDETAILBLENDFACTOR@SDK_VertexLitGeneric@@YAXXZ 10035f20 f   vertexlitgeneric_dx9.obj
 0001:00034f50       ??__EDETAILTINT@SDK_VertexLitGeneric@@YAXXZ 10035f50 f   vertexlitgeneric_dx9.obj
 0001:00034f80       ??__EDETAILTEXTURETRANSFORM@SDK_VertexLitGeneric@@YAXXZ 10035f80 f   vertexlitgeneric_dx9.obj
 0001:00034fb0       ??__ERIMLIGHT@SDK_VertexLitGeneric@@YAXXZ 10035fb0 f   vertexlitgeneric_dx9.obj
 0001:00034fe0       ??__ERIMLIGHTEXPONENT@SDK_VertexLitGeneric@@YAXXZ 10035fe0 f   vertexlitgeneric_dx9.obj
 0001:00035010       ??__ERIMLIGHTBOOST@SDK_VertexLitGeneric@@YAXXZ 10036010 f   vertexlitgeneric_dx9.obj
 0001:00035040       ??__ERIMMASK@SDK_VertexLitGeneric@@YAXXZ 10036040 f   vertexlitgeneric_dx9.obj
 0001:00035070       ??__ESEAMLESS_BASE@SDK_VertexLitGeneric@@YAXXZ 10036070 f   vertexlitgeneric_dx9.obj
 0001:000350a0       ??__ESEAMLESS_DETAIL@SDK_VertexLitGeneric@@YAXXZ 100360a0 f   vertexlitgeneric_dx9.obj
 0001:000350d0       ??__ESEAMLESS_SCALE@SDK_VertexLitGeneric@@YAXXZ 100360d0 f   vertexlitgeneric_dx9.obj
 0001:00035100       ??__EEMISSIVEBLENDENABLED@SDK_VertexLitGeneric@@YAXXZ 10036100 f   vertexlitgeneric_dx9.obj
 0001:00035130       ??__EEMISSIVEBLENDBASETEXTURE@SDK_VertexLitGeneric@@YAXXZ 10036130 f   vertexlitgeneric_dx9.obj
 0001:00035160       ??__EEMISSIVEBLENDSCROLLVECTOR@SDK_VertexLitGeneric@@YAXXZ 10036160 f   vertexlitgeneric_dx9.obj
 0001:00035190       ??__EEMISSIVEBLENDSTRENGTH@SDK_VertexLitGeneric@@YAXXZ 10036190 f   vertexlitgeneric_dx9.obj
 0001:000351c0       ??__EEMISSIVEBLENDTEXTURE@SDK_VertexLitGeneric@@YAXXZ 100361c0 f   vertexlitgeneric_dx9.obj
 0001:000351f0       ??__EEMISSIVEBLENDTINT@SDK_VertexLitGeneric@@YAXXZ 100361f0 f   vertexlitgeneric_dx9.obj
 0001:00035220       ??__EEMISSIVEBLENDFLOWTEXTURE@SDK_VertexLitGeneric@@YAXXZ 10036220 f   vertexlitgeneric_dx9.obj
 0001:00035250       ??__ETIME@SDK_VertexLitGeneric@@YAXXZ 10036250 f   vertexlitgeneric_dx9.obj
 0001:00035280       ??__ECLOAKPASSENABLED@SDK_VertexLitGeneric@@YAXXZ 10036280 f   vertexlitgeneric_dx9.obj
 0001:000352b0       ??__ECLOAKFACTOR@SDK_VertexLitGeneric@@YAXXZ 100362b0 f   vertexlitgeneric_dx9.obj
 0001:000352e0       ??__ECLOAKCOLORTINT@SDK_VertexLitGeneric@@YAXXZ 100362e0 f   vertexlitgeneric_dx9.obj
 0001:00035310       ??__EREFRACTAMOUNT@SDK_VertexLitGeneric@@YAXXZ 10036310 f   vertexlitgeneric_dx9.obj
 0001:00035340       ??__EFLESHINTERIORENABLED@SDK_VertexLitGeneric@@YAXXZ 10036340 f   vertexlitgeneric_dx9.obj
 0001:00035370       ??__EFLESHINTERIORTEXTURE@SDK_VertexLitGeneric@@YAXXZ 10036370 f   vertexlitgeneric_dx9.obj
 0001:000353a0       ??__EFLESHINTERIORNOISETEXTURE@SDK_VertexLitGeneric@@YAXXZ 100363a0 f   vertexlitgeneric_dx9.obj
 0001:000353d0       ??__EFLESHBORDERTEXTURE1D@SDK_VertexLitGeneric@@YAXXZ 100363d0 f   vertexlitgeneric_dx9.obj
 0001:00035400       ??__EFLESHNORMALTEXTURE@SDK_VertexLitGeneric@@YAXXZ 10036400 f   vertexlitgeneric_dx9.obj
 0001:00035430       ??__EFLESHSUBSURFACETEXTURE@SDK_VertexLitGeneric@@YAXXZ 10036430 f   vertexlitgeneric_dx9.obj
 0001:00035460       ??__EFLESHCUBETEXTURE@SDK_VertexLitGeneric@@YAXXZ 10036460 f   vertexlitgeneric_dx9.obj
 0001:00035490       ??__EFLESHBORDERNOISESCALE@SDK_VertexLitGeneric@@YAXXZ 10036490 f   vertexlitgeneric_dx9.obj
 0001:000354c0       ??__EFLESHDEBUGFORCEFLESHON@SDK_VertexLitGeneric@@YAXXZ 100364c0 f   vertexlitgeneric_dx9.obj
 0001:000354f0       ??__EFLESHEFFECTCENTERRADIUS1@SDK_VertexLitGeneric@@YAXXZ 100364f0 f   vertexlitgeneric_dx9.obj
 0001:00035520       ??__EFLESHEFFECTCENTERRADIUS2@SDK_VertexLitGeneric@@YAXXZ 10036520 f   vertexlitgeneric_dx9.obj
 0001:00035550       ??__EFLESHEFFECTCENTERRADIUS3@SDK_VertexLitGeneric@@YAXXZ 10036550 f   vertexlitgeneric_dx9.obj
 0001:00035580       ??__EFLESHEFFECTCENTERRADIUS4@SDK_VertexLitGeneric@@YAXXZ 10036580 f   vertexlitgeneric_dx9.obj
 0001:000355b0       ??__EFLESHSUBSURFACETINT@SDK_VertexLitGeneric@@YAXXZ 100365b0 f   vertexlitgeneric_dx9.obj
 0001:000355e0       ??__EFLESHBORDERWIDTH@SDK_VertexLitGeneric@@YAXXZ 100365e0 f   vertexlitgeneric_dx9.obj
 0001:00035610       ??__EFLESHBORDERSOFTNESS@SDK_VertexLitGeneric@@YAXXZ 10036610 f   vertexlitgeneric_dx9.obj
 0001:00035640       ??__EFLESHBORDERTINT@SDK_VertexLitGeneric@@YAXXZ 10036640 f   vertexlitgeneric_dx9.obj
 0001:00035670       ??__EFLESHGLOBALOPACITY@SDK_VertexLitGeneric@@YAXXZ 10036670 f   vertexlitgeneric_dx9.obj
 0001:000356a0       ??__EFLESHGLOSSBRIGHTNESS@SDK_VertexLitGeneric@@YAXXZ 100366a0 f   vertexlitgeneric_dx9.obj
 0001:000356d0       ??__EFLESHSCROLLSPEED@SDK_VertexLitGeneric@@YAXXZ 100366d0 f   vertexlitgeneric_dx9.obj
 0001:00035700       ??__ESEPARATEDETAILUVS@SDK_VertexLitGeneric@@YAXXZ 10036700 f   vertexlitgeneric_dx9.obj
 0001:00035730       ??__ELINEARWRITE@SDK_VertexLitGeneric@@YAXXZ 10036730 f   vertexlitgeneric_dx9.obj
 0001:00035760       ??__EDEPTHBLEND@SDK_VertexLitGeneric@@YAXXZ 10036760 f   vertexlitgeneric_dx9.obj
 0001:00035790       ??__EDEPTHBLENDSCALE@SDK_VertexLitGeneric@@YAXXZ 10036790 f   vertexlitgeneric_dx9.obj
 0001:000357c0       ??__ERIPINFO@SDK_VertexLitGeneric@@YAXXZ 100367c0 f   vertexlitgeneric_dx9.obj
 0001:000357f0       ??__ECULLMODE@SDK_VertexLitGeneric@@YAXXZ 100367f0 f   vertexlitgeneric_dx9.obj
 0001:00035820       ??__Es_ShaderInstance@SDK_VertexLitGeneric@@YAXXZ 10036820 f   vertexlitgeneric_dx9.obj
 0001:00035840       ??__Emat_fullbright@@YAXXZ 10036840 f   vertexlitgeneric_dx9_helper.obj
 0001:00035870       ??__Er_lightwarpidentity@@YAXXZ 10036870 f   vertexlitgeneric_dx9_helper.obj
 0001:000358a0       ??__Es_ShaderParams@SDK_VortWarp@@YAXXZ 100368a0 f   vortwarp_dx9.obj
 0001:000358b0       ??__Es_ShaderInstance@SDK_VortWarp@@YAXXZ 100368b0 f   vortwarp_dx9.obj
 0001:000358d0       ??__Es_ShaderParams@SDK_VortWarp_DX9@@YAXXZ 100368d0 f   vortwarp_dx9.obj
 0001:000358e0       ??__EALBEDO@SDK_VortWarp_DX9@@YAXXZ 100368e0 f   vortwarp_dx9.obj
 0001:00035910       ??__ESELFILLUMTINT@SDK_VortWarp_DX9@@YAXXZ 10036910 f   vortwarp_dx9.obj
 0001:00035940       ??__EDETAIL@SDK_VortWarp_DX9@@YAXXZ 10036940 f   vortwarp_dx9.obj
 0001:00035970       ??__EDETAILFRAME@SDK_VortWarp_DX9@@YAXXZ 10036970 f   vortwarp_dx9.obj
 0001:000359a0       ??__EDETAILSCALE@SDK_VortWarp_DX9@@YAXXZ 100369a0 f   vortwarp_dx9.obj
 0001:000359d0       ??__EENVMAP@SDK_VortWarp_DX9@@YAXXZ 100369d0 f   vortwarp_dx9.obj
 0001:00035a00       ??__EENVMAPFRAME@SDK_VortWarp_DX9@@YAXXZ 10036a00 f   vortwarp_dx9.obj
 0001:00035a30       ??__EENVMAPMASK@SDK_VortWarp_DX9@@YAXXZ 10036a30 f   vortwarp_dx9.obj
 0001:00035a60       ??__EENVMAPMASKFRAME@SDK_VortWarp_DX9@@YAXXZ 10036a60 f   vortwarp_dx9.obj
 0001:00035a90       ??__EENVMAPMASKTRANSFORM@SDK_VortWarp_DX9@@YAXXZ 10036a90 f   vortwarp_dx9.obj
 0001:00035ac0       ??__EENVMAPTINT@SDK_VortWarp_DX9@@YAXXZ 10036ac0 f   vortwarp_dx9.obj
 0001:00035af0       ??__EBUMPMAP@SDK_VortWarp_DX9@@YAXXZ 10036af0 f   vortwarp_dx9.obj
 0001:00035b20       ??__EBUMPFRAME@SDK_VortWarp_DX9@@YAXXZ 10036b20 f   vortwarp_dx9.obj
 0001:00035b50       ??__EBUMPTRANSFORM@SDK_VortWarp_DX9@@YAXXZ 10036b50 f   vortwarp_dx9.obj
 0001:00035b80       ??__EENVMAPCONTRAST@SDK_VortWarp_DX9@@YAXXZ 10036b80 f   vortwarp_dx9.obj
 0001:00035bb0       ??__EENVMAPSATURATION@SDK_VortWarp_DX9@@YAXXZ 10036bb0 f   vortwarp_dx9.obj
 0001:00035be0       ??__ESELFILLUM_ENVMAPMASK_ALPHA@SDK_VortWarp_DX9@@YAXXZ 10036be0 f   vortwarp_dx9.obj
 0001:00035c10       ??__EAMBIENTONLY@SDK_VortWarp_DX9@@YAXXZ 10036c10 f   vortwarp_dx9.obj
 0001:00035c40       ??__EENTITYORIGIN@SDK_VortWarp_DX9@@YAXXZ 10036c40 f   vortwarp_dx9.obj
 0001:00035c70       ??__EWARPPARAM@SDK_VortWarp_DX9@@YAXXZ 10036c70 f   vortwarp_dx9.obj
 0001:00035ca0       ??__EFLOWMAP@SDK_VortWarp_DX9@@YAXXZ 10036ca0 f   vortwarp_dx9.obj
 0001:00035cd0       ??__ESELFILLUMMAP@SDK_VortWarp_DX9@@YAXXZ 10036cd0 f   vortwarp_dx9.obj
 0001:00035d00       ??__EUNLIT@SDK_VortWarp_DX9@@YAXXZ 10036d00 f   vortwarp_dx9.obj
 0001:00035d30       ??__EPHONGEXPONENT@SDK_VortWarp_DX9@@YAXXZ 10036d30 f   vortwarp_dx9.obj
 0001:00035d60       ??__EPHONGTINT@SDK_VortWarp_DX9@@YAXXZ 10036d60 f   vortwarp_dx9.obj
 0001:00035d90       ??__EPHONGALBEDOTINT@SDK_VortWarp_DX9@@YAXXZ 10036d90 f   vortwarp_dx9.obj
 0001:00035dc0       ??__ELIGHTWARPTEXTURE@SDK_VortWarp_DX9@@YAXXZ 10036dc0 f   vortwarp_dx9.obj
 0001:00035df0       ??__EPHONGWARPTEXTURE@SDK_VortWarp_DX9@@YAXXZ 10036df0 f   vortwarp_dx9.obj
 0001:00035e20       ??__EPHONGFRESNELRANGES@SDK_VortWarp_DX9@@YAXXZ 10036e20 f   vortwarp_dx9.obj
 0001:00035e50       ??__EPHONGBOOST@SDK_VortWarp_DX9@@YAXXZ 10036e50 f   vortwarp_dx9.obj
 0001:00035e80       ??__EPHONGEXPONENTTEXTURE@SDK_VortWarp_DX9@@YAXXZ 10036e80 f   vortwarp_dx9.obj
 0001:00035eb0       ??__EPHONG@SDK_VortWarp_DX9@@YAXXZ 10036eb0 f   vortwarp_dx9.obj
 0001:00035ee0       ??__Es_ShaderInstance@SDK_VortWarp_DX9@@YAXXZ 10036ee0 f   vortwarp_dx9.obj
 0001:00035f00       ??__Er_waterforceexpensive@@YAXXZ 10036f00 f   water.obj
 0001:00035f30       ??__Es_ShaderParams@SDK_Water@@YAXXZ 10036f30 f   water.obj
 0001:00035f40       ??__Es_ShaderInstance@SDK_Water@@YAXXZ 10036f40 f   water.obj
 0001:00035f60       ??__Es_ShaderParams@SDK_Water_DX90@@YAXXZ 10036f60 f   water.obj
 0001:00035f70       ??__EREFRACTTEXTURE@SDK_Water_DX90@@YAXXZ 10036f70 f   water.obj
 0001:00035fa0       ??__EREFLECTTEXTURE@SDK_Water_DX90@@YAXXZ 10036fa0 f   water.obj
 0001:00035fd0       ??__EREFRACTAMOUNT@SDK_Water_DX90@@YAXXZ 10036fd0 f   water.obj
 0001:00036000       ??__EREFRACTTINT@SDK_Water_DX90@@YAXXZ 10037000 f   water.obj
 0001:00036030       ??__EREFLECTAMOUNT@SDK_Water_DX90@@YAXXZ 10037030 f   water.obj
 0001:00036060       ??__EREFLECTTINT@SDK_Water_DX90@@YAXXZ 10037060 f   water.obj
 0001:00036090       ??__ENORMALMAP@SDK_Water_DX90@@YAXXZ 10037090 f   water.obj
 0001:000360c0       ??__EBUMPFRAME@SDK_Water_DX90@@YAXXZ 100370c0 f   water.obj
 0001:000360f0       ??__EBUMPTRANSFORM@SDK_Water_DX90@@YAXXZ 100370f0 f   water.obj
 0001:00036120       ??__ESCALE@SDK_Water_DX90@@YAXXZ 10037120 f   water.obj
 0001:00036150       ??__ETIME@SDK_Water_DX90@@YAXXZ 10037150 f   water.obj
 0001:00036180       ??__EWATERDEPTH@SDK_Water_DX90@@YAXXZ 10037180 f   water.obj
 0001:000361b0       ??__ECHEAPWATERSTARTDISTANCE@SDK_Water_DX90@@YAXXZ 100371b0 f   water.obj
 0001:000361e0       ??__ECHEAPWATERENDDISTANCE@SDK_Water_DX90@@YAXXZ 100371e0 f   water.obj
 0001:00036210       ??__EENVMAP@SDK_Water_DX90@@YAXXZ 10037210 f   water.obj
 0001:00036240       ??__EENVMAPFRAME@SDK_Water_DX90@@YAXXZ 10037240 f   water.obj
 0001:00036270       ??__EFOGCOLOR@SDK_Water_DX90@@YAXXZ 10037270 f   water.obj
 0001:000362a0       ??__EFORCECHEAP@SDK_Water_DX90@@YAXXZ 100372a0 f   water.obj
 0001:000362d0       ??__EFORCEEXPENSIVE@SDK_Water_DX90@@YAXXZ 100372d0 f   water.obj
 0001:00036300       ??__EREFLECTENTITIES@SDK_Water_DX90@@YAXXZ 10037300 f   water.obj
 0001:00036330       ??__EFOGSTART@SDK_Water_DX90@@YAXXZ 10037330 f   water.obj
 0001:00036360       ??__EFOGEND@SDK_Water_DX90@@YAXXZ 10037360 f   water.obj
 0001:00036390       ??__EABOVEWATER@SDK_Water_DX90@@YAXXZ 10037390 f   water.obj
 0001:000363c0       ??__EREFLECTBLENDFACTOR@SDK_Water_DX90@@YAXXZ 100373c0 f   water.obj
 0001:000363f0       ??__ENOFRESNEL@SDK_Water_DX90@@YAXXZ 100373f0 f   water.obj
 0001:00036420       ??__ENOLOWENDLIGHTMAP@SDK_Water_DX90@@YAXXZ 10037420 f   water.obj
 0001:00036450       ??__ESCROLL1@SDK_Water_DX90@@YAXXZ 10037450 f   water.obj
 0001:00036480       ??__ESCROLL2@SDK_Water_DX90@@YAXXZ 10037480 f   water.obj
 0001:000364b0       ??__EBLURREFRACT@SDK_Water_DX90@@YAXXZ 100374b0 f   water.obj
 0001:000364e0       ??__ERIPINFO@SDK_Water_DX90@@YAXXZ 100374e0 f   water.obj
 0001:00036510       ??__ECULLMODE@SDK_Water_DX90@@YAXXZ 10037510 f   water.obj
 0001:00036540       ??__Es_ShaderInstance@SDK_Water_DX90@@YAXXZ 10037540 f   water.obj
 0001:00036560       ??__Es_ShaderInstance@SDK_Water_DX9_HDR@SDK_Water_DX90@@YAXXZ 10037560 f   water.obj
 0001:00036580       ??__Es_ShaderParams@SDK_WorldTwoTextureBlend@@YAXXZ 10037580 f   worldtwotextureblend.obj
 0001:00036590       ??__EBASETEXTURE@SDK_WorldTwoTextureBlend@@YAXXZ 10037590 f   worldtwotextureblend.obj
 0001:000365a0       ??__EALBEDO@SDK_WorldTwoTextureBlend@@YAXXZ 100375a0 f   worldtwotextureblend.obj
 0001:000365d0       ??__ESELFILLUMTINT@SDK_WorldTwoTextureBlend@@YAXXZ 100375d0 f   worldtwotextureblend.obj
 0001:00036600       ??__EDETAIL@SDK_WorldTwoTextureBlend@@YAXXZ 10037600 f   worldtwotextureblend.obj
 0001:00036630       ??__EDETAILFRAME@SDK_WorldTwoTextureBlend@@YAXXZ 10037630 f   worldtwotextureblend.obj
 0001:00036660       ??__EDETAILSCALE@SDK_WorldTwoTextureBlend@@YAXXZ 10037660 f   worldtwotextureblend.obj
 0001:00036690       ??__EDETAIL_ALPHA_MASK_BASE_TEXTURE@SDK_WorldTwoTextureBlend@@YAXXZ 10037690 f   worldtwotextureblend.obj
 0001:000366c0       ??__EBUMPMAP@SDK_WorldTwoTextureBlend@@YAXXZ 100376c0 f   worldtwotextureblend.obj
 0001:000366f0       ??__EBUMPFRAME@SDK_WorldTwoTextureBlend@@YAXXZ 100376f0 f   worldtwotextureblend.obj
 0001:00036720       ??__EBUMPTRANSFORM@SDK_WorldTwoTextureBlend@@YAXXZ 10037720 f   worldtwotextureblend.obj
 0001:00036750       ??__ENODIFFUSEBUMPLIGHTING@SDK_WorldTwoTextureBlend@@YAXXZ 10037750 f   worldtwotextureblend.obj
 0001:00036780       ??__ESEAMLESS_SCALE@SDK_WorldTwoTextureBlend@@YAXXZ 10037780 f   worldtwotextureblend.obj
 0001:000367b0       ??__Es_ShaderInstance@SDK_WorldTwoTextureBlend@@YAXXZ 100377b0 f   worldtwotextureblend.obj
 0001:000367d0       ??__Es_ShaderParams@SDK_WorldVertexAlpha@@YAXXZ 100377d0 f   worldvertexalpha.obj
 0001:000367e0       ??__Es_ShaderInstance@SDK_WorldVertexAlpha@@YAXXZ 100377e0 f   worldvertexalpha.obj
 0001:00036800       ??__Es_ShaderParams@SDK_WorldVertexTransition@@YAXXZ 10037800 f   worldvertextransition.obj
 0001:00036810       ??__Es_ShaderInstance@SDK_WorldVertexTransition@@YAXXZ 10037810 f   worldvertextransition.obj
 0001:00036830       ??__Es_ShaderParams@SDK_WorldVertexTransition_DX9@@YAXXZ 10037830 f   worldvertextransition.obj
 0001:00036840       ??__EALBEDO@SDK_WorldVertexTransition_DX9@@YAXXZ 10037840 f   worldvertextransition.obj
 0001:00036870       ??__ESELFILLUMTINT@SDK_WorldVertexTransition_DX9@@YAXXZ 10037870 f   worldvertextransition.obj
 0001:000368a0       ??__EDETAIL@SDK_WorldVertexTransition_DX9@@YAXXZ 100378a0 f   worldvertextransition.obj
 0001:000368d0       ??__EDETAILFRAME@SDK_WorldVertexTransition_DX9@@YAXXZ 100378d0 f   worldvertextransition.obj
 0001:00036900       ??__EDETAILSCALE@SDK_WorldVertexTransition_DX9@@YAXXZ 10037900 f   worldvertextransition.obj
 0001:00036930       ??__EDETAILBLENDMODE@SDK_WorldVertexTransition_DX9@@YAXXZ 10037930 f   worldvertextransition.obj
 0001:00036960       ??__EDETAILBLENDFACTOR@SDK_WorldVertexTransition_DX9@@YAXXZ 10037960 f   worldvertextransition.obj
 0001:00036990       ??__EDETAILTINT@SDK_WorldVertexTransition_DX9@@YAXXZ 10037990 f   worldvertextransition.obj
 0001:000369c0       ??__EENVMAP@SDK_WorldVertexTransition_DX9@@YAXXZ 100379c0 f   worldvertextransition.obj
 0001:000369f0       ??__EENVMAPFRAME@SDK_WorldVertexTransition_DX9@@YAXXZ 100379f0 f   worldvertextransition.obj
 0001:00036a20       ??__EENVMAPMASK@SDK_WorldVertexTransition_DX9@@YAXXZ 10037a20 f   worldvertextransition.obj
 0001:00036a50       ??__EENVMAPMASKFRAME@SDK_WorldVertexTransition_DX9@@YAXXZ 10037a50 f   worldvertextransition.obj
 0001:00036a80       ??__EENVMAPMASKTRANSFORM@SDK_WorldVertexTransition_DX9@@YAXXZ 10037a80 f   worldvertextransition.obj
 0001:00036ab0       ??__EENVMAPTINT@SDK_WorldVertexTransition_DX9@@YAXXZ 10037ab0 f   worldvertextransition.obj
 0001:00036ae0       ??__EBUMPMAP@SDK_WorldVertexTransition_DX9@@YAXXZ 10037ae0 f   worldvertextransition.obj
 0001:00036b10       ??__EBUMPFRAME@SDK_WorldVertexTransition_DX9@@YAXXZ 10037b10 f   worldvertextransition.obj
 0001:00036b40       ??__EBUMPTRANSFORM@SDK_WorldVertexTransition_DX9@@YAXXZ 10037b40 f   worldvertextransition.obj
 0001:00036b70       ??__EENVMAPCONTRAST@SDK_WorldVertexTransition_DX9@@YAXXZ 10037b70 f   worldvertextransition.obj
 0001:00036ba0       ??__EENVMAPSATURATION@SDK_WorldVertexTransition_DX9@@YAXXZ 10037ba0 f   worldvertextransition.obj
 0001:00036bd0       ??__EFRESNELREFLECTION@SDK_WorldVertexTransition_DX9@@YAXXZ 10037bd0 f   worldvertextransition.obj
 0001:00036c00       ??__ENODIFFUSEBUMPLIGHTING@SDK_WorldVertexTransition_DX9@@YAXXZ 10037c00 f   worldvertextransition.obj
 0001:00036c30       ??__EBUMPMAP2@SDK_WorldVertexTransition_DX9@@YAXXZ 10037c30 f   worldvertextransition.obj
 0001:00036c60       ??__EBUMPFRAME2@SDK_WorldVertexTransition_DX9@@YAXXZ 10037c60 f   worldvertextransition.obj
 0001:00036c90       ??__EBUMPTRANSFORM2@SDK_WorldVertexTransition_DX9@@YAXXZ 10037c90 f   worldvertextransition.obj
 0001:00036cc0       ??__EBUMPMASK@SDK_WorldVertexTransition_DX9@@YAXXZ 10037cc0 f   worldvertextransition.obj
 0001:00036cf0       ??__EBASETEXTURE2@SDK_WorldVertexTransition_DX9@@YAXXZ 10037cf0 f   worldvertextransition.obj
 0001:00036d20       ??__EFRAME2@SDK_WorldVertexTransition_DX9@@YAXXZ 10037d20 f   worldvertextransition.obj
 0001:00036d50       ??__EBASETEXTURENOENVMAP@SDK_WorldVertexTransition_DX9@@YAXXZ 10037d50 f   worldvertextransition.obj
 0001:00036d80       ??__EBASETEXTURE2NOENVMAP@SDK_WorldVertexTransition_DX9@@YAXXZ 10037d80 f   worldvertextransition.obj
 0001:00036db0       ??__EDETAIL_ALPHA_MASK_BASE_TEXTURE@SDK_WorldVertexTransition_DX9@@YAXXZ 10037db0 f   worldvertextransition.obj
 0001:00036de0       ??__ELIGHTWARPTEXTURE@SDK_WorldVertexTransition_DX9@@YAXXZ 10037de0 f   worldvertextransition.obj
 0001:00036e10       ??__EBLENDMODULATETEXTURE@SDK_WorldVertexTransition_DX9@@YAXXZ 10037e10 f   worldvertextransition.obj
 0001:00036e40       ??__EBLENDMASKTRANSFORM@SDK_WorldVertexTransition_DX9@@YAXXZ 10037e40 f   worldvertextransition.obj
 0001:00036e70       ??__EMASKEDBLENDING@SDK_WorldVertexTransition_DX9@@YAXXZ 10037e70 f   worldvertextransition.obj
 0001:00036ea0       ??__ESSBUMP@SDK_WorldVertexTransition_DX9@@YAXXZ 10037ea0 f   worldvertextransition.obj
 0001:00036ed0       ??__ESEAMLESS_SCALE@SDK_WorldVertexTransition_DX9@@YAXXZ 10037ed0 f   worldvertextransition.obj
 0001:00036f00       ??__Es_ShaderInstance@SDK_WorldVertexTransition_DX9@@YAXXZ 10037f00 f   worldvertextransition.obj
 0001:00036f20       ??__Es_renderNormals@@YAXXZ 10037f20 f   void_celshadelightmapped.obj
 0001:00036f50       ??__Es_ShaderParams@Void_CelShadeLightmapped@@YAXXZ 10037f50 f   void_celshadelightmapped.obj
 0001:00036f60       ??__EBASETEXTURE@Void_CelShadeLightmapped@@YAXXZ 10037f60 f   void_celshadelightmapped.obj
 0001:00036f90       ??__EBUMPMAP@Void_CelShadeLightmapped@@YAXXZ 10037f90 f   void_celshadelightmapped.obj
 0001:00036fc0       ??__EPARALLAX@Void_CelShadeLightmapped@@YAXXZ 10037fc0 f   void_celshadelightmapped.obj
 0001:00036ff0       ??__ERIPINFO@Void_CelShadeLightmapped@@YAXXZ 10037ff0 f   void_celshadelightmapped.obj
 0001:00037020       ??__ECULLMODE@Void_CelShadeLightmapped@@YAXXZ 10038020 f   void_celshadelightmapped.obj
 0001:00037050       ??__Es_ShaderInstance@Void_CelShadeLightmapped@@YAXXZ 10038050 f   void_celshadelightmapped.obj
 0001:00037070       ??__Es_ShaderParams@void_postblur@@YAXXZ 10038070 f   void_postblur.obj
 0001:00037080       ??__EBASETEXTURE@void_postblur@@YAXXZ 10038080 f   void_postblur.obj
 0001:000370b0       ??__ETEXOFFSET@void_postblur@@YAXXZ 100380b0 f   void_postblur.obj
 0001:000370e0       ??__ENOALPHAWEIGHT@void_postblur@@YAXXZ 100380e0 f   void_postblur.obj
 0001:00037110       ??__Es_ShaderInstance@void_postblur@@YAXXZ 10038110 f   void_postblur.obj
 0001:00037130       ??__Es_ShaderParams@Void_PostComposite@@YAXXZ 10038130 f   void_postcomposite.obj
 0001:00037140       ??__EBASETEXTURE@Void_PostComposite@@YAXXZ 10038140 f   void_postcomposite.obj
 0001:00037170       ??__EOVERLAYTEXTURE@Void_PostComposite@@YAXXZ 10038170 f   void_postcomposite.obj
 0001:000371a0       ??__EOVERLAYCOLOR@Void_PostComposite@@YAXXZ 100381a0 f   void_postcomposite.obj
 0001:000371d0       ??__ENOISETEXTURE@Void_PostComposite@@YAXXZ 100381d0 f   void_postcomposite.obj
 0001:00037200       ??__ENOISEFRAME@Void_PostComposite@@YAXXZ 10038200 f   void_postcomposite.obj
 0001:00037230       ??__Es_ShaderInstance@Void_PostComposite@@YAXXZ 10038230 f   void_postcomposite.obj
 0001:00037250       ??__Es_ShaderParams@void_postgodray@@YAXXZ 10038250 f   void_postgodray.obj
 0001:00037260       ??__EBASETEXTURE@void_postgodray@@YAXXZ 10038260 f   void_postgodray.obj
 0001:00037290       ??__ELIGHTORIGIN@void_postgodray@@YAXXZ 10038290 f   void_postgodray.obj
 0001:000372c0       ??__Es_ShaderInstance@void_postgodray@@YAXXZ 100382c0 f   void_postgodray.obj
 0001:000372e0       ??__Es_ShaderParams@void_postworldcomposite@@YAXXZ 100382e0 f   void_postworldcomposite.obj
 0001:000372f0       ??__EWORLDTEXTURE1@void_postworldcomposite@@YAXXZ 100382f0 f   void_postworldcomposite.obj
 0001:00037320       ??__EWORLDTEXTURE2@void_postworldcomposite@@YAXXZ 10038320 f   void_postworldcomposite.obj
 0001:00037350       ??__EBLENDCONSTANTS@void_postworldcomposite@@YAXXZ 10038350 f   void_postworldcomposite.obj
 0001:00037380       ??__EBLENDMODE@void_postworldcomposite@@YAXXZ 10038380 f   void_postworldcomposite.obj
 0001:000373b0       ??__Es_ShaderInstance@void_postworldcomposite@@YAXXZ 100383b0 f   void_postworldcomposite.obj
 0001:000373d0       ??__Emat_fullbright@@YAXXZ 100383d0 f   shaderlib:BaseShader.obj
 0001:00037400       ??__E__g_CreateIShaderDLLInternal_reg@@YAXXZ 10038400 f   shaderlib:ShaderDLL.obj
 0001:00037420       ??__Es_EmptyConVar@@YAXXZ  10038420 f   tier1:convar.obj
 0001:00037510       ??__Es_StringCharConversion@@YAXXZ 10038510 f   tier1:utlbuffer.obj
 0001:00037570       ??__Es_NoEscConversion@@YAXXZ 10038570 f   tier1:utlbuffer.obj
 0001:000375a0       ??__Fs_ShaderParams@SDK_Aftershock@@YAXXZ 100385a0 f   aftershock.obj
 0001:000375b0       ??__Fs_ShaderParams@SDK_Aftershock_dx9@@YAXXZ 100385b0 f   aftershock.obj
 0001:000375c0       ??__Fmat_fullbright@@YAXXZ 100385c0 f   BaseVSShader.obj
 0001:000375d0       ??__Fs_ShaderParams@SDK_Bloom@@YAXXZ 100385d0 f   Bloom.obj
 0001:000375e0       ??__Fs_ShaderParams@SDK_Cable@@YAXXZ 100385e0 f   cable_dx9.obj
 0001:000375f0       ??__Fs_ShaderParams@SDK_Cable_DX9@@YAXXZ 100385f0 f   cable_dx9.obj
 0001:00037600       ??__Fr_lightwarpidentity@@YAXXZ 10038600 f   cloak_dx9_helper.obj
 0001:00037610       ??__Fs_ShaderParams@SDK_Core@@YAXXZ 10038610 f   core_dx9.obj
 0001:00037620       ??__Fs_ShaderParams@SDK_Core_DX90@@YAXXZ 10038620 f   core_dx9.obj
 0001:00037630       ??__Fs_ShaderParams@SDK_DepthWrite@@YAXXZ 10038630 f   dx8fallbacks.obj
 0001:00037640       ??__Fs_ShaderParams@SDK_EyeRefract@@YAXXZ 10038640 f   dx8fallbacks.obj
 0001:00037650       ??__Fs_ShaderParams@SDK_VolumeClouds@@YAXXZ 10038650 f   dx8fallbacks.obj
 0001:00037660       ??__Fs_ShaderParams@SDK_EyeGlint@@YAXXZ 10038660 f   dx8fallbacks.obj
 0001:00037670       ??__Fs_ShaderParams@SDK_AfterShock@@YAXXZ 10038670 f   dx8fallbacks.obj
 0001:00037680       ??__Fs_ShaderParams@SDK_EyeRefract@@YAXXZ 10038680 f   eye_refract.obj
 0001:00037690       ??__Fs_ShaderParams@SDK_EyeRefract_dx9@@YAXXZ 10038690 f   eye_refract.obj
 0001:000376a0       ??__Fr_lightwarpidentity@@YAXXZ 100386a0 f   eye_refract_helper.obj
 0001:000376b0       ??__Fs_ShaderParams@SDK_Eyeball@@YAXXZ 100386b0 f   eyeball.obj
 0001:000376c0       ??__Fs_ShaderParams@SDK_EyeGlint@@YAXXZ 100386c0 f   eyeglint_dx9.obj
 0001:000376d0       ??__Fs_ShaderParams@SDK_EyeGlint_dx9@@YAXXZ 100386d0 f   eyeglint_dx9.obj
 0001:000376e0       ??__Fs_ShaderParams@SDK_eyes@@YAXXZ 100386e0 f   eyes.obj
 0001:000376f0       ??__Fs_ShaderParams@SDK_Eyes_dx8@@YAXXZ 100386f0 f   eyes.obj
 0001:00037700       ??__Fr_flashlight_version2@@YAXXZ 10038700 f   eyes_dx8_dx9_helper.obj
 0001:00037710       ??__Fs_ShaderParams@SDK_eyes@@YAXXZ 10038710 f   eyes_dx9.obj
 0001:00037720       ??__Fs_ShaderParams@SDK_Eyes_dx9@@YAXXZ 10038720 f   eyes_dx9.obj
 0001:00037730       ??__Fs_ShaderParams@SDK_LightmappedGeneric_Decal@@YAXXZ 10038730 f   lightmappedgeneric_decal.obj
 0001:00037740       ??__Fs_ShaderParams@SDK_LightmappedGeneric_DX9@@YAXXZ 10038740 f   lightmappedgeneric_dx9.obj
 0001:00037750       ??__Fmat_disable_lightwarp@@YAXXZ 10038750 f   lightmappedgeneric_dx9_helper.obj
 0001:00037760       ??__Fmat_disable_fancy_blending@@YAXXZ 10038760 f   lightmappedgeneric_dx9_helper.obj
 0001:00037770       ??__Fmat_fullbright@@YAXXZ 10038770 f   lightmappedgeneric_dx9_helper.obj
 0001:00037780       ??__Fs_ShaderParams@SDK_LightmappedReflective@@YAXXZ 10038780 f   lightmappedreflective.obj
 0001:00037790       ??__Fs_ShaderParams@SDK_LightmappedReflective_DX90@@YAXXZ 10038790 f   lightmappedreflective.obj
 0001:000377a0       ??__Fs_ShaderParams@SDK_LightmappedTwoTexture@@YAXXZ 100387a0 f   lightmappedtwotexture.obj
 0001:000377b0       ??__Fs_ShaderParams@SDK_Refract@@YAXXZ 100387b0 f   refract.obj
 0001:000377c0       ??__Fs_ShaderParams@SDK_Refract_DX90@@YAXXZ 100387c0 f   refract.obj
 0001:000377d0       ??__Fs_ShaderParams@SDK_screenspace_general@@YAXXZ 100387d0 f   screenspace_general.obj
 0001:000377e0       ??__Fs_ShaderParams@SDK_screenspace_general_dx9@@YAXXZ 100387e0 f   screenspace_general.obj
 0001:000377f0       ??__Fmat_fullbright@@YAXXZ 100387f0 f   skin_dx9_helper.obj
 0001:00037800       ??__Fr_lightwarpidentity@@YAXXZ 10038800 f   skin_dx9_helper.obj
 0001:00037810       ??__Fr_rimlight@@YAXXZ     10038810 f   skin_dx9_helper.obj
 0001:00037820       ??__Fs_ShaderParams@SDK_Spritecard@@YAXXZ 10038820 f   spritecard.obj
 0001:00037830       ??__Fs_ShaderParams@SDK_Teeth@@YAXXZ 10038830 f   teeth.obj
 0001:00037840       ??__Fs_ShaderParams@SDK_Teeth_DX9@@YAXXZ 10038840 f   teeth.obj
 0001:00037850       ??__Fs_ShaderParams@SDK_UnlitGeneric@@YAXXZ 10038850 f   unlitgeneric_dx9.obj
 0001:00037860       ??__Fs_ShaderParams@SDK_UnlitTwoTexture@@YAXXZ 10038860 f   unlittwotexture_dx9.obj
 0001:00037870       ??__Fs_ShaderParams@SDK_UnlitTwoTexture_DX9@@YAXXZ 10038870 f   unlittwotexture_dx9.obj
 0001:00037880       ??__Fs_ShaderParams@SDK_VertexLitGeneric@@YAXXZ 10038880 f   vertexlitgeneric_dx9.obj
 0001:00037890       ??__Fmat_fullbright@@YAXXZ 10038890 f   vertexlitgeneric_dx9_helper.obj
 0001:000378a0       ??__Fr_lightwarpidentity@@YAXXZ 100388a0 f   vertexlitgeneric_dx9_helper.obj
 0001:000378b0       ??__Fs_ShaderParams@SDK_VortWarp@@YAXXZ 100388b0 f   vortwarp_dx9.obj
 0001:000378c0       ??__Fs_ShaderParams@SDK_VortWarp_DX9@@YAXXZ 100388c0 f   vortwarp_dx9.obj
 0001:000378d0       ??__Fr_waterforceexpensive@@YAXXZ 100388d0 f   water.obj
 0001:000378e0       ??__Fs_ShaderParams@SDK_Water@@YAXXZ 100388e0 f   water.obj
 0001:000378f0       ??__Fs_ShaderParams@SDK_Water_DX90@@YAXXZ 100388f0 f   water.obj
 0001:00037900       ??__Fs_ShaderParams@SDK_WorldTwoTextureBlend@@YAXXZ 10038900 f   worldtwotextureblend.obj
 0001:00037910       ??__Fs_ShaderParams@SDK_WorldVertexAlpha@@YAXXZ 10038910 f   worldvertexalpha.obj
 0001:00037920       ??__Fs_ShaderParams@SDK_WorldVertexTransition@@YAXXZ 10038920 f   worldvertextransition.obj
 0001:00037930       ??__Fs_ShaderParams@SDK_WorldVertexTransition_DX9@@YAXXZ 10038930 f   worldvertextransition.obj
 0001:00037940       ??__Fs_renderNormals@@YAXXZ 10038940 f   void_celshadelightmapped.obj
 0001:00037950       ??__Fs_ShaderParams@Void_CelShadeLightmapped@@YAXXZ 10038950 f   void_celshadelightmapped.obj
 0001:00037960       ??__Fs_ShaderParams@void_postblur@@YAXXZ 10038960 f   void_postblur.obj
 0001:00037970       ??__Fs_ShaderParams@Void_PostComposite@@YAXXZ 10038970 f   void_postcomposite.obj
 0001:00037980       ??__Fs_ShaderParams@void_postgodray@@YAXXZ 10038980 f   void_postgodray.obj
 0001:00037990       ??__Fs_ShaderParams@void_postworldcomposite@@YAXXZ 10038990 f   void_postworldcomposite.obj
 0001:000379a0       ??__Fmat_fullbright@@YAXXZ 100389a0 f   shaderlib:BaseShader.obj
 0001:000379b0       ??__Fs_EmptyConVar@@YAXXZ  100389b0 f   tier1:convar.obj
 0001:000379eb       ??__Fnomem@?5???2@YAPAXI@Z@YAXXZ 100389eb f   LIBCMT:new.obj
